Certificate:
    Data:
        Version: 3 (0x2)
        Serial Number:
            f9:d8:d1:19:1c:07:52:cf
    Signature Algorithm: sha256WithRSAEncryption
        Issuer: C=KR, O=IDQ, OU=Quantum Tech. Lab,, CN=IDQ KMS Self Signed CA
        Validity
            Not Before: Nov 15 05:10:22 2018 GMT
            Not After : Nov 14 05:10:22 2023 GMT
        Subject: C=KR, O=IDQ, OU=Quantum Tech. Lab,, CN=IDQ KMS Client
        Subject Public Key Info:
            Public Key Algorithm: rsaEncryption
                Public-Key: (2048 bit)
                Modulus:
                    00:c5:eb:ec:bb:96:a6:a9:20:3f:76:60:b5:2c:7e:
                    d5:fd:9d:f5:3c:84:d4:1e:94:ef:eb:3d:62:58:7c:
                    8c:16:4b:80:da:3e:d5:8d:0d:42:d5:c9:d5:1a:ca:
                    96:05:f9:14:27:66:19:c3:00:e5:82:5a:a0:27:84:
                    d0:5b:07:90:af:36:0d:f2:e0:3a:b5:c9:ef:fb:3e:
                    1d:53:55:d3:a3:43:c8:76:f6:f7:e9:6a:26:51:6f:
                    d6:44:36:70:85:e3:b4:ac:cc:6b:74:65:0b:a6:0e:
                    27:90:36:92:65:93:3e:ba:6e:aa:17:4d:73:56:5a:
                    85:23:66:b9:78:81:ac:45:14:c5:0d:23:65:cd:de:
                    cd:68:e0:72:60:89:c6:b1:df:e9:b1:37:6a:c8:44:
                    a0:ab:b5:fe:77:35:52:e9:f2:eb:b2:f4:53:f2:64:
                    af:5d:51:2e:c4:a0:53:5b:38:9f:59:96:1f:04:73:
                    42:79:d1:c1:7c:d6:58:57:05:de:80:7e:09:64:14:
                    43:5f:68:cd:7f:a6:16:21:73:83:55:06:c2:f7:9e:
                    c7:6b:ef:45:83:c9:47:d0:0b:f5:66:b1:74:0a:d9:
                    5e:43:3f:de:5e:03:46:0c:de:c0:90:55:1f:9e:a0:
                    47:5a:29:7f:5f:c5:58:c6:da:8a:1b:d2:5b:2e:92:
                    9f:33
                Exponent: 65537 (0x10001)
        X509v3 extensions:
            X509v3 Basic Constraints: 
                CA:FALSE
            X509v3 Authority Key Identifier: 
                keyid:54:DF:E3:33:6B:8F:40:68:89:66:D8:13:90:7C:79:B4:BF:A2:E8:71

            X509v3 Subject Key Identifier: 
                53:D0:0E:45:DC:99:D0:F8:AC:6D:01:AB:27:AA:6D:8E:7D:B1:E4:C0
            X509v3 Key Usage: 
                Digital Signature, Non Repudiation, Key Encipherment
            X509v3 Extended Key Usage: 
                TLS Web Client Authentication
            X509v3 Subject Alternative Name: 
                DirName:/CN=330110002
    Signature Algorithm: sha256WithRSAEncryption
         88:31:60:c1:fb:23:68:b8:9f:65:88:1e:24:f7:26:18:34:c5:
         1a:92:76:6e:82:b3:46:69:4d:a4:53:7d:1e:d1:e2:e6:2e:29:
         f8:e9:e2:8e:ae:a9:69:ce:96:9b:d4:b3:a7:91:5a:35:42:ca:
         68:75:2f:16:6e:e4:45:24:b2:59:f1:7e:6b:0d:f6:66:4f:45:
         bf:d5:77:c1:ab:5a:7f:6d:f2:4d:3c:78:7f:91:4e:04:96:ad:
         ef:e0:ad:73:91:c9:99:26:1c:56:d5:6a:c8:7b:81:9b:4c:c0:
         7d:84:c4:eb:b0:aa:dd:ee:87:82:33:38:ef:ad:77:e7:66:b4:
         e1:db:d4:1a:8b:2e:fe:07:b3:eb:a0:1f:f4:0e:15:f5:86:4b:
         b2:04:00:12:64:19:38:98:9b:8d:87:df:81:31:9d:f6:b5:a2:
         e9:17:47:58:45:3c:84:a7:e0:d9:79:07:4c:5e:5a:c6:ff:65:
         52:c0:8c:7a:be:fc:b1:a9:af:49:6c:d5:e6:f1:15:66:3d:7a:
         50:35:1d:77:c4:01:f3:52:08:97:8e:3a:08:99:e2:d2:68:d0:
         b9:91:c3:2b:ce:59:c3:0b:58:26:83:8f:68:ac:af:4e:24:85:
         e4:f3:cf:59:3e:91:16:cf:22:ec:67:57:13:47:f1:b2:85:71:
         b6:94:19:73
-----BEGIN CERTIFICATE-----
MIIDwTCCAqmgAwIBAgIJAPnY0RkcB1LPMA0GCSqGSIb3DQEBCwUAMFkxCzAJBgNV
BAYTAktSMQwwCgYDVQQKDANJRFExGzAZBgNVBAsMElF1YW50dW0gVGVjaC4gTGFi
LDEfMB0GA1UEAwwWSURRIEtNUyBTZWxmIFNpZ25lZCBDQTAeFw0xODExMTUwNTEw
MjJaFw0yMzExMTQwNTEwMjJaMFExCzAJBgNVBAYTAktSMQwwCgYDVQQKDANJRFEx
GzAZBgNVBAsMElF1YW50dW0gVGVjaC4gTGFiLDEXMBUGA1UEAwwOSURRIEtNUyBD
bGllbnQwggEiMA0GCSqGSIb3DQEBAQUAA4IBDwAwggEKAoIBAQDF6+y7lqapID92
YLUsftX9nfU8hNQelO/rPWJYfIwWS4DaPtWNDULVydUaypYF+RQnZhnDAOWCWqAn
hNBbB5CvNg3y4Dq1ye/7Ph1TVdOjQ8h29vfpaiZRb9ZENnCF47SszGt0ZQumDieQ
NpJlkz66bqoXTXNWWoUjZrl4gaxFFMUNI2XN3s1o4HJgicax3+mxN2rIRKCrtf53
NVLp8uuy9FPyZK9dUS7EoFNbOJ9Zlh8Ec0J50cF81lhXBd6AfglkFENfaM1/phYh
c4NVBsL3nsdr70WDyUfQC/VmsXQK2V5DP95eA0YM3sCQVR+eoEdaKX9fxVjG2oob
0lsukp8zAgMBAAGjgZMwgZAwCQYDVR0TBAIwADAfBgNVHSMEGDAWgBRU3+Mza49A
aIlm2BOQfHm0v6LocTAdBgNVHQ4EFgQUU9AORdyZ0PisbQGrJ6ptjn2x5MAwCwYD
VR0PBAQDAgXgMBMGA1UdJQQMMAoGCCsGAQUFBwMCMCEGA1UdEQQaMBikFjAUMRIw
EAYDVQQDDAkzMzAxMTAwMDIwDQYJKoZIhvcNAQELBQADggEBAIgxYMH7I2i4n2WI
HiT3Jhg0xRqSdm6Cs0ZpTaRTfR7R4uYuKfjp4o6uqWnOlpvUs6eRWjVCymh1LxZu
5EUkslnxfmsN9mZPRb/Vd8GrWn9t8k08eH+RTgSWre/grXORyZkmHFbVash7gZtM
wH2ExOuwqt3uh4IzOO+td+dmtOHb1BqLLv4Hs+ugH/QOFfWGS7IEABJkGTiYm42H
34Exnfa1oukXR1hFPISn4Nl5B0xeWsb/ZVLAjHq+/LGpr0ls1ebxFWY9elA1HXfE
AfNSCJeOOgiZ4tJo0LmRwyvOWcMLWCaDj2isr04kheTzz1k+kRbPIuxnVxNH8bKF
cbaUGXM=
-----END CERTIFICATE-----
-----BEGIN RSA PRIVATE KEY-----
MIIEpgIBAAKCAQEAxevsu5amqSA/dmC1LH7V/Z31PITUHpTv6z1iWHyMFkuA2j7V
jQ1C1cnVGsqWBfkUJ2YZwwDlglqgJ4TQWweQrzYN8uA6tcnv+z4dU1XTo0PIdvb3
6WomUW/WRDZwheO0rMxrdGULpg4nkDaSZZM+um6qF01zVlqFI2a5eIGsRRTFDSNl
zd7NaOByYInGsd/psTdqyESgq7X+dzVS6fLrsvRT8mSvXVEuxKBTWzifWZYfBHNC
edHBfNZYVwXegH4JZBRDX2jNf6YWIXODVQbC957Ha+9Fg8lH0Av1ZrF0CtleQz/e
XgNGDN7AkFUfnqBHWil/X8VYxtqKG9JbLpKfMwIDAQABAoIBAQCVhenfwi2AYdtv
7BmTVvMFWhsWMGcr/2rNdh9hKB6RDVN4DbY5jIYsiwFS7y+trYG7ThgySPAaraqG
kIDz9GAq7hRVo27XPYrubPuspI9xrVi5/1RFY6s1JN9jwxj5HZC2ZuzbDydguRrM
iV3KHRZrtAUN+7Yhy9r/ZrDByH1D5dpwqCnffr0KNjHvxZkTRcfbPRVII2PRkX/X
FrBCyxoF4Wn5jvi8JexOyzfFT7YK8nRvqXNt/A5ZQBCGctj/jVLV6JNgxHt8Nmp4
3AF6HKwkArrOvucW/eeTYEU5KXP/Mb6jgySGRXPDjQsYkREOTIvgpRfV57GKZWOV
nE360kdpAoGBAPcASyoxvp1LhDZ0yWJbTy1YJAQSEQ+Cs7CSWU+4pMgzIb9NLT0g
gFVivXQbQF2RlNC1DIYdnG0rc8hOtIXYxbe88zKy5OL8tIy+wyd0dlZd31GK9LQ8
guZxRKYF44O2DZK9FnGD4/IpdiSZwb7OoaGHSKUqCMgNaxGxzL2euYCFAoGBAM0h
4W21knW8lOB6xZgl3VJPUbl8d/QEOVPNB9y8kUOROCLzLGvLXsIZy6HzNyEVmOUG
xVtRFCiQH19MF3WhAxlQKcqkVg/pa2SgYwaxBR9lMeV7qwzYXxZqjYABTkQsf30X
I/hWGOKN+0ONvIW31a+DLJagG6Je/K8RKpJXU8pXAoGBAKV0MOVmxQSgnUPNH0kf
WP5K2HVRlNQK/Ur9/Y2FZfwlJCn9DJyxtMV9iuLHjmofJsxXOrhsBWirfrdi4VH3
TxoxG8eORfw2wsq0zg0T2mEoKHt61UgWcKjkntOHhkuoG5d7yhjn/D0uwNDrnfiu
eV62PFdGvPMk6d/Edh1ewWvxAoGBALXHfFkYOj2Ta+qxYUC+7S3vlGBm6HWY+KRG
YN0/TQsvOSvfilHL2qDu8wEE4qmy1da+9U1CwDZh4Ss15uQaVwCrhR1KG+nl04FM
j/RyEjQMHPdba+zqIPlgWxxAC/dl52QWiY2b3lmFsE/g3lsw2W+7MlwYbeSpgAoz
kCI2uM3pAoGBALJMEaWhy2u+mk+momyhbkjd7J2YJPVEYxNfT2xUqtZuicTpgz3Y
jO3lH8RhX2lSRDQ2Fmx5eQ5Mq+T0CrLp70+MtqAZss2tHWyKkeDDN62+7Xzop0cH
EDsx9AkFImmzhpkYy5mwUB7H+5nSL3XeBZRHCpGWcthdWNLEPArRf+EQ
-----END RSA PRIVATE KEY-----
