Certificate:
    Data:
        Version: 3 (0x2)
        Serial Number:
            74:f0:1d:ab:7a:83:fd:60:67:3e:c8:e0:6c:e9:6d:b3:0e:f8:49:f2
        Signature Algorithm: ecdsa-with-SHA256
        Issuer: C = KR, O = IDQ, OU = "Quantum Tech. Lab,", CN = IDQ KMS Self Signed CA
        Validity
            Not Before: Mar 15 05:11:03 2019 GMT
            Not After : Mar 13 05:11:03 2024 GMT
        Subject: C = KR, O = IDQ, OU = "Quantum Tech. Lab,", CN = IDQ KMS Client 330110002
        Subject Public Key Info:
            Public Key Algorithm: id-ecPublicKey
                Public-Key: (384 bit)
                pub:
                    04:18:cc:1f:d1:f1:31:9e:f5:f0:3a:b1:70:5d:26:
                    43:83:40:de:ce:0e:48:0f:c7:a9:cf:0a:ac:c0:76:
                    44:59:95:c5:45:e1:3d:ad:14:7f:de:da:5b:fb:06:
                    84:15:7c:4d:81:56:54:62:29:26:c6:a7:f5:0b:f3:
                    53:00:04:19:89:43:63:cf:2c:4a:02:bc:00:16:2f:
                    5c:84:86:2a:46:5a:10:79:79:cd:83:cf:26:3e:a3:
                    49:57:01:c4:6d:30:e9
                ASN1 OID: secp384r1
                NIST CURVE: P-384
        X509v3 extensions:
            X509v3 Basic Constraints: 
                CA:FALSE
            X509v3 Authority Key Identifier: 
                keyid:78:7E:80:F0:E6:76:C4:FA:0B:D0:76:48:B8:AA:76:0D:7C:A7:FD:05

            X509v3 Subject Key Identifier: 
                71:5E:25:C0:71:7C:6E:DF:D4:49:37:79:67:53:68:24:07:23:05:32
            X509v3 Key Usage: 
                Digital Signature, Non Repudiation, Key Encipherment
            X509v3 Extended Key Usage: 
                TLS Web Client Authentication
    Signature Algorithm: ecdsa-with-SHA256
         30:65:02:30:3b:ef:dc:1d:11:3e:58:be:f6:2d:ea:77:e8:91:
         66:de:87:1e:b1:48:14:54:05:ea:e4:c1:d3:e9:7e:80:56:22:
         77:75:8e:9d:df:6a:c1:65:8e:cd:56:c1:ed:d3:f2:a4:02:31:
         00:d3:9d:26:69:b0:16:40:48:77:c1:eb:ae:5e:94:86:01:9f:
         a9:9e:09:ff:18:54:f7:0c:da:46:72:4f:dc:93:7d:bc:61:f6:
         6a:7a:09:35:10:1e:4a:d9:64:1c:09:46:76
-----BEGIN CERTIFICATE-----
MIICYjCCAeigAwIBAgIUdPAdq3qD/WBnPsjgbOltsw74SfIwCgYIKoZIzj0EAwIw
WTELMAkGA1UEBhMCS1IxDDAKBgNVBAoMA0lEUTEbMBkGA1UECwwSUXVhbnR1bSBU
ZWNoLiBMYWIsMR8wHQYDVQQDDBZJRFEgS01TIFNlbGYgU2lnbmVkIENBMB4XDTE5
MDMxNTA1MTEwM1oXDTI0MDMxMzA1MTEwM1owWzELMAkGA1UEBhMCS1IxDDAKBgNV
BAoMA0lEUTEbMBkGA1UECwwSUXVhbnR1bSBUZWNoLiBMYWIsMSEwHwYDVQQDDBhJ
RFEgS01TIENsaWVudCAzMzAxMTAwMDIwdjAQBgcqhkjOPQIBBgUrgQQAIgNiAAQY
zB/R8TGe9fA6sXBdJkODQN7ODkgPx6nPCqzAdkRZlcVF4T2tFH/e2lv7BoQVfE2B
VlRiKSbGp/UL81MABBmJQ2PPLEoCvAAWL1yEhipGWhB5ec2DzyY+o0lXAcRtMOmj
bzBtMAkGA1UdEwQCMAAwHwYDVR0jBBgwFoAUeH6A8OZ2xPoL0HZIuKp2DXyn/QUw
HQYDVR0OBBYEFHFeJcBxfG7f1Ek3eWdTaCQHIwUyMAsGA1UdDwQEAwIF4DATBgNV
HSUEDDAKBggrBgEFBQcDAjAKBggqhkjOPQQDAgNoADBlAjA779wdET5YvvYt6nfo
kWbehx6xSBRUBerkwdPpfoBWInd1jp3fasFljs1Wwe3T8qQCMQDTnSZpsBZASHfB
665elIYBn6meCf8YVPcM2kZyT9yTfbxh9mp6CTUQHkrZZBwJRnY=
-----END CERTIFICATE-----
-----BEGIN EC PRIVATE KEY-----
MIGkAgEBBDDdofNWMpIPJz7irpt2uFPG2BrvGGvgXbc7Z5Cigb2rdhc5bF+1Vjpi
eaeMmaFS2HmgBwYFK4EEACKhZANiAAQYzB/R8TGe9fA6sXBdJkODQN7ODkgPx6nP
CqzAdkRZlcVF4T2tFH/e2lv7BoQVfE2BVlRiKSbGp/UL81MABBmJQ2PPLEoCvAAW
L1yEhipGWhB5ec2DzyY+o0lXAcRtMOk=
-----END EC PRIVATE KEY-----
-----BEGIN DH PARAMETERS-----
MIIBCAKCAQEAoit53Kv6ET2AzgJERgYiZ0pUeqc+OxwO4qRLsjI4AKpEkxthvAU1
Mk1wFtRLcxnoBLOnZ6oh9qr/jg9hl6e0DOCaCfvGrJpnbhgCC/WyBEF4iTcg6sXf
pQpK9azvIGdqIlG8MovtRt67wSQYP+uuIbEZXF3JrEpYn0HyYcnBSVyDZ8dAGMsT
Vtd0CuSeKg+t1gDC5Z3lVIf2aQnnorAs2w2rz9UpS1yTYnCYRoxGxDkMOkZcSWF1
s3d0i0QHmcbgt3Gbit7ASvWoFTGiVceGTpzwcIfhW4Lv4B4YexmTDvlh6xK1hgMn
/+MBbnI8p9jP/GkaeKWWObwdwiNLd/OwuwIBAg==
-----END DH PARAMETERS-----
