Certificate:
    Data:
        Version: 3 (0x2)
        Serial Number:
            74:f0:1d:ab:7a:83:fd:60:67:3e:c8:e0:6c:e9:6d:b3:0e:f8:49:f3
        Signature Algorithm: ecdsa-with-SHA256
        Issuer: C = KR, O = IDQ, OU = "Quantum Tech. Lab,", CN = IDQ KMS Self Signed CA
        Validity
            Not Before: Mar 15 05:11:29 2019 GMT
            Not After : Mar 13 05:11:29 2024 GMT
        Subject: C = KR, O = IDQ, OU = "Quantum Tech. Lab,", CN = IDQ KMS Client 440110001
        Subject Public Key Info:
            Public Key Algorithm: id-ecPublicKey
                Public-Key: (384 bit)
                pub:
                    04:dd:d1:48:51:86:40:7c:7d:64:c1:7f:24:22:76:
                    3e:1e:58:47:6f:3d:26:60:bd:4c:66:67:d2:10:cf:
                    32:4d:67:61:d2:27:fc:c9:ee:6f:02:b1:92:81:7a:
                    fe:a5:a9:74:0e:ce:7d:b4:9b:c2:2b:00:36:b5:22:
                    ab:0c:48:61:f0:99:77:6c:ed:d8:8a:73:32:63:3a:
                    94:34:c5:fc:88:81:71:b2:06:4c:0a:d2:f1:3d:da:
                    10:8d:d5:a9:4b:bf:f7
                ASN1 OID: secp384r1
                NIST CURVE: P-384
        X509v3 extensions:
            X509v3 Basic Constraints: 
                CA:FALSE
            X509v3 Authority Key Identifier: 
                keyid:78:7E:80:F0:E6:76:C4:FA:0B:D0:76:48:B8:AA:76:0D:7C:A7:FD:05

            X509v3 Subject Key Identifier: 
                1B:33:70:58:E5:60:44:B6:CB:82:12:17:46:2C:62:FF:7C:EE:73:17
            X509v3 Key Usage: 
                Digital Signature, Non Repudiation, Key Encipherment
            X509v3 Extended Key Usage: 
                TLS Web Client Authentication
    Signature Algorithm: ecdsa-with-SHA256
         30:65:02:31:00:ea:e9:d3:1a:f7:44:e3:c0:97:5d:d3:df:ae:
         b2:13:2f:6d:8e:d9:11:39:1c:4a:7d:85:14:2d:e2:0a:95:1e:
         f2:fd:5c:50:c8:be:73:24:f9:ad:81:45:ab:04:50:9d:5b:02:
         30:28:74:1d:11:79:c6:a5:7d:ce:87:35:17:cb:cf:32:9c:b2:
         12:7b:af:77:fd:52:eb:93:8f:db:b4:f6:3c:11:a8:35:d2:95:
         68:b6:45:c1:41:b4:0a:35:03:9d:70:4e:34
-----BEGIN CERTIFICATE-----
MIICYjCCAeigAwIBAgIUdPAdq3qD/WBnPsjgbOltsw74SfMwCgYIKoZIzj0EAwIw
WTELMAkGA1UEBhMCS1IxDDAKBgNVBAoMA0lEUTEbMBkGA1UECwwSUXVhbnR1bSBU
ZWNoLiBMYWIsMR8wHQYDVQQDDBZJRFEgS01TIFNlbGYgU2lnbmVkIENBMB4XDTE5
MDMxNTA1MTEyOVoXDTI0MDMxMzA1MTEyOVowWzELMAkGA1UEBhMCS1IxDDAKBgNV
BAoMA0lEUTEbMBkGA1UECwwSUXVhbnR1bSBUZWNoLiBMYWIsMSEwHwYDVQQDDBhJ
RFEgS01TIENsaWVudCA0NDAxMTAwMDEwdjAQBgcqhkjOPQIBBgUrgQQAIgNiAATd
0UhRhkB8fWTBfyQidj4eWEdvPSZgvUxmZ9IQzzJNZ2HSJ/zJ7m8CsZKBev6lqXQO
zn20m8IrADa1IqsMSGHwmXds7diKczJjOpQ0xfyIgXGyBkwK0vE92hCN1alLv/ej
bzBtMAkGA1UdEwQCMAAwHwYDVR0jBBgwFoAUeH6A8OZ2xPoL0HZIuKp2DXyn/QUw
HQYDVR0OBBYEFBszcFjlYES2y4ISF0YsYv987nMXMAsGA1UdDwQEAwIF4DATBgNV
HSUEDDAKBggrBgEFBQcDAjAKBggqhkjOPQQDAgNoADBlAjEA6unTGvdE48CXXdPf
rrITL22O2RE5HEp9hRQt4gqVHvL9XFDIvnMk+a2BRasEUJ1bAjAodB0Recalfc6H
NRfLzzKcshJ7r3f9UuuTj9u09jwRqDXSlWi2RcFBtAo1A51wTjQ=
-----END CERTIFICATE-----
-----BEGIN EC PRIVATE KEY-----
MIGkAgEBBDAXajGGLEsfsT923AHE2hvkXRHDvUdxBhvXomTGV/qsgYymkfKUxxj1
2TlYZ76B7mGgBwYFK4EEACKhZANiAATd0UhRhkB8fWTBfyQidj4eWEdvPSZgvUxm
Z9IQzzJNZ2HSJ/zJ7m8CsZKBev6lqXQOzn20m8IrADa1IqsMSGHwmXds7diKczJj
OpQ0xfyIgXGyBkwK0vE92hCN1alLv/c=
-----END EC PRIVATE KEY-----
-----BEGIN DH PARAMETERS-----
MIIBCAKCAQEAk37PWMwlVNKhEBffDZYLwcZMWbcagX8w9VKyWWy7A7DTv+sp8S25
3wEUxG1Ea5u0VP9A48GWC0wcNQHpVCzHduHMCkuCVdEEpuHLZdEFtxvj5ktkuIoa
ZkMfqgVGm637MMNkdj7UoM8dzZ+sTTPX8Fvuul9K0jh4bFwAbKgAhJrY46R7LXFy
snH4XmFktnRxdCFKss4sv3ghWNIy1m/7qRkvK0InQYDWdTszQuhK1vBWpULR+JDX
ZIQlrXM5Q38DhkTafGJLASe4I7/Hx3+xNubcu3jtpRiwdfmzRmJXBygXV1S9VN1D
M7ec+1TSeCbj0VyGz0UmQ0juW5coJqiiIwIBAg==
-----END DH PARAMETERS-----
