Certificate:
    Data:
        Version: 3 (0x2)
        Serial Number:
            f9:d8:d1:19:1c:07:52:cd
    Signature Algorithm: sha256WithRSAEncryption
        Issuer: C=KR, O=IDQ, OU=Quantum Tech. Lab,, CN=IDQ KMS Self Signed CA
        Validity
            Not Before: Nov 14 08:51:52 2018 GMT
            Not After : Nov 13 08:51:52 2023 GMT
        Subject: C=KR, O=IDQ., OU=Quantum Tech. Lab,, CN=KMS IDQ Server
        Subject Public Key Info:
            Public Key Algorithm: rsaEncryption
                Public-Key: (2048 bit)
                Modulus:
                    00:b5:c9:a5:e7:02:46:34:05:62:fd:75:e4:aa:47:
                    23:d6:ca:16:da:d2:59:2a:e9:6b:75:1d:4f:79:a4:
                    eb:b5:9b:17:e4:cd:0c:44:60:8e:7c:a4:1a:e4:7a:
                    50:00:6b:82:f8:2b:7f:9a:91:36:4c:77:c7:f6:2e:
                    14:da:d2:cc:c9:a2:c6:9b:55:f3:60:63:2b:b5:74:
                    75:33:67:4c:25:b6:f7:1c:91:a1:7a:e8:db:77:1d:
                    5a:21:ec:83:81:bc:21:f7:26:f2:fb:06:16:7d:ef:
                    60:8b:d5:d9:9f:0f:a1:9d:c9:8e:d6:4e:4e:e3:d6:
                    84:7b:9c:40:9f:65:49:ac:b0:30:b9:7e:b8:1e:8c:
                    a7:3d:99:36:64:b7:c6:b0:b2:62:12:f0:74:67:27:
                    dd:92:99:d3:6e:69:64:d7:09:d7:94:e7:3c:c1:7d:
                    09:8e:4d:6b:c3:4b:a6:36:6e:cf:b0:ad:6d:7e:d6:
                    8d:ab:0a:78:1a:a1:38:48:d6:14:19:b9:1b:f6:54:
                    a0:92:a1:9c:35:ad:2e:cb:47:18:fd:d9:59:79:de:
                    14:a4:93:dd:f5:79:0b:c7:dc:08:6e:15:ba:29:e2:
                    a4:a8:33:4d:44:6f:d6:53:b2:06:e6:53:5b:43:a8:
                    e1:a0:e3:d5:32:cd:30:90:4f:13:0f:4a:ad:41:91:
                    4e:f3
                Exponent: 65537 (0x10001)
        X509v3 extensions:
            X509v3 Basic Constraints: 
                CA:FALSE
            X509v3 Authority Key Identifier: 
                keyid:21:E8:A6:8D:DA:B6:8A:62:67:DC:AF:C0:F0:DD:37:B1:18:22:96:CB

            X509v3 Subject Key Identifier: 
                A2:F0:CF:23:42:B8:40:C4:53:2B:CB:BB:5E:32:BC:A8:BE:64:D3:B8
            X509v3 Key Usage: 
                Digital Signature, Non Repudiation, Key Encipherment
            X509v3 Extended Key Usage: 
                TLS Web Server Authentication
            X509v3 Subject Alternative Name: 
                DirName:/CN=KMS Restful Agent V1.0
    Signature Algorithm: sha256WithRSAEncryption
         b9:f1:77:1b:9a:7a:73:47:d2:f2:ba:5c:e4:c8:e7:fd:79:cc:
         d0:1d:6a:25:a2:38:e0:cd:0e:30:08:7a:e0:bb:d0:24:46:02:
         cc:70:d0:99:3e:54:0a:7f:20:57:9b:3d:5c:53:a1:8c:0f:c4:
         ed:a1:d6:eb:32:50:53:8b:20:1a:24:49:43:63:61:1a:ad:63:
         17:c6:fd:d2:ac:81:83:1d:9d:99:44:a7:57:31:65:0c:64:e6:
         86:be:5c:04:f5:c6:b6:35:e7:7c:e4:94:4a:3f:86:dc:a4:df:
         1f:d5:80:ab:09:a4:d7:df:8d:6e:7b:d7:04:3b:9b:5e:7c:93:
         d2:ca:6a:e4:84:93:09:06:b0:00:78:06:29:d4:89:3d:75:08:
         b0:09:20:23:12:a8:cc:12:e1:2d:e5:74:5b:da:9d:45:4d:f2:
         4b:9f:fa:33:7a:cf:4a:c9:b8:41:c1:9c:86:3b:ab:c2:58:bc:
         55:06:1a:f5:8e:e2:16:d2:be:3f:89:08:78:f5:63:16:2c:ac:
         b2:15:80:8a:3e:d2:d6:02:8f:c2:be:e9:60:36:9d:e3:2e:aa:
         f6:d9:37:4c:d2:f1:ca:fb:fb:3e:da:25:2b:62:a2:cf:b0:5a:
         99:91:c4:bc:bc:08:09:a3:aa:25:a6:44:d1:19:1e:e7:8d:96:
         db:44:37:09
-----BEGIN CERTIFICATE-----
MIIDzzCCAregAwIBAgIJAPnY0RkcB1LNMA0GCSqGSIb3DQEBCwUAMFkxCzAJBgNV
BAYTAktSMQwwCgYDVQQKDANJRFExGzAZBgNVBAsMElF1YW50dW0gVGVjaC4gTGFi
LDEfMB0GA1UEAwwWSURRIEtNUyBTZWxmIFNpZ25lZCBDQTAeFw0xODExMTQwODUx
NTJaFw0yMzExMTMwODUxNTJaMFIxCzAJBgNVBAYTAktSMQ0wCwYDVQQKDARJRFEu
MRswGQYDVQQLDBJRdWFudHVtIFRlY2guIExhYiwxFzAVBgNVBAMMDktNUyBJRFEg
U2VydmVyMIIBIjANBgkqhkiG9w0BAQEFAAOCAQ8AMIIBCgKCAQEAtcml5wJGNAVi
/XXkqkcj1soW2tJZKulrdR1PeaTrtZsX5M0MRGCOfKQa5HpQAGuC+Ct/mpE2THfH
9i4U2tLMyaLGm1XzYGMrtXR1M2dMJbb3HJGheujbdx1aIeyDgbwh9yby+wYWfe9g
i9XZnw+hncmO1k5O49aEe5xAn2VJrLAwuX64HoynPZk2ZLfGsLJiEvB0ZyfdkpnT
bmlk1wnXlOc8wX0Jjk1rw0umNm7PsK1tftaNqwp4GqE4SNYUGbkb9lSgkqGcNa0u
y0cY/dlZed4UpJPd9XkLx9wIbhW6KeKkqDNNRG/WU7IG5lNbQ6jhoOPVMs0wkE8T
D0qtQZFO8wIDAQABo4GgMIGdMAkGA1UdEwQCMAAwHwYDVR0jBBgwFoAUIeimjdq2
imJn3K/A8N03sRgilsswHQYDVR0OBBYEFKLwzyNCuEDEUyvLu14yvKi+ZNO4MAsG
A1UdDwQEAwIF4DATBgNVHSUEDDAKBggrBgEFBQcDATAuBgNVHREEJzAlpCMwITEf
MB0GA1UEAwwWS01TIFJlc3RmdWwgQWdlbnQgVjEuMDANBgkqhkiG9w0BAQsFAAOC
AQEAufF3G5p6c0fS8rpc5Mjn/XnM0B1qJaI44M0OMAh64LvQJEYCzHDQmT5UCn8g
V5s9XFOhjA/E7aHW6zJQU4sgGiRJQ2NhGq1jF8b90qyBgx2dmUSnVzFlDGTmhr5c
BPXGtjXnfOSUSj+G3KTfH9WAqwmk19+NbnvXBDubXnyT0spq5ISTCQawAHgGKdSJ
PXUIsAkgIxKozBLhLeV0W9qdRU3yS5/6M3rPSsm4QcGchjurwli8VQYa9Y7iFtK+
P4kIePVjFiysshWAij7S1gKPwr7pYDad4y6q9tk3TNLxyvv7PtolK2Kiz7BamZHE
vLwICaOqJaZE0Rke542W20Q3CQ==
-----END CERTIFICATE-----
-----BEGIN RSA PRIVATE KEY-----
MIIEpQIBAAKCAQEAtcml5wJGNAVi/XXkqkcj1soW2tJZKulrdR1PeaTrtZsX5M0M
RGCOfKQa5HpQAGuC+Ct/mpE2THfH9i4U2tLMyaLGm1XzYGMrtXR1M2dMJbb3HJGh
eujbdx1aIeyDgbwh9yby+wYWfe9gi9XZnw+hncmO1k5O49aEe5xAn2VJrLAwuX64
HoynPZk2ZLfGsLJiEvB0ZyfdkpnTbmlk1wnXlOc8wX0Jjk1rw0umNm7PsK1tftaN
qwp4GqE4SNYUGbkb9lSgkqGcNa0uy0cY/dlZed4UpJPd9XkLx9wIbhW6KeKkqDNN
RG/WU7IG5lNbQ6jhoOPVMs0wkE8TD0qtQZFO8wIDAQABAoIBAQCYqDS8kKlZqChf
xq/22nTbO6wDqF8e7RPDLpD+CyOxxwNCrXqetSMSwlCfC6PBJoe+VfD7YPRjNLdk
IYB73kgBD8OO0JfnmoArChgdyaIljcdoY1diuscJ+UkmcdJhkRZI0Zl8eblLmkjO
RRBSRbMnqQpdJzeSlyN8FlQiRtGexI98q698aXCHYsx8L+7Uvm7ij4nfRLqUfCZa
sB2NlAqTS4XTg5NxTta5czXt4gl4zwRhDFrBuV0CKZyQVYXGlbU41jdR47HgkQBe
qsV5T35WrjPlpa1xIcFeH0rbNzeMlpl78+fXXzj/wZc8W/0Hzx1brtQZv7Kq/4kY
7hB1Xmf5AoGBAOeHnCt4kUuNusSU8EpF8V3GODYNFNnoMHPgiZ2ngpFGBj0qfkA7
rJju2Yj1Zck1hSKRniJh5CFU/HTp9nsTxWQpwiDNEMcx7pOeHrw5RBzMEktQqd0V
Ke56WTWDHIHvqy0FslWPzqZ6BLMHrsxjoZw9qWwSEnuUH0mc7a/WqoJNAoGBAMkA
MPcRH0cpDO2wJYInZwY4h6RMAU1B5XpyHa4kmCxSow1743tYGOBMrPNOPJKRpnKM
bUHhsXuqfUqEnIC1e2RDbqOpsrJb7gxH/yTekk7jmACW3cdVE63IFidWTclbl1J8
EhDB+rk69lRi4bXvd2H9u/7a5DAYaouXqd6YGzY/AoGAA1PxrLZI8FsTKiwx3/9t
XrmwqSY6/H7X43KAx+FWgRwOjuaDdgzliDU2rz9HvUKlrT+GlFvv2YLNNij+v/oi
xjPLdIk+Cn7vPPPy4SW5kuhkAu0f4+uf9KuRiLFfwYZeYYFJdO1iPQZX9vLPUmTE
N+iy/Litx1Tzti0pRXPCc6kCgYEAnzaPkqT1aaCSpRQKIfakHMFacEHkJhY0d7E8
4VwLTdCHZ37iyikWS1VxCajHQjIs7j9dq/niZFq/s+8nKKyYeOsREIKzEaTQAtpk
uAe1TNfq50yZj/NMCzOamL48D2uFicjNZojA2UhjJqTMtRhiMDSUXWN1rMMqYjhY
TgGeTHECgYEApMxO/5d/8NeQWvVloMpd9oYJhVnLi0kC7gcO00ORXsSfEvS9eG7G
vZeEGDjUc6gx4/kogVx/3v/ZiFxLOvlZr8ITrK16ywtnGkgKlZivWjE1anHdrVlL
RUQ3KoJI2MusSwuHSu0vxIIAy0Zhx1Uga456jQ7zeLI98IT9srWpi14=
-----END RSA PRIVATE KEY-----
