Certificate:
    Data:
        Version: 3 (0x2)
        Serial Number:
            f9:d8:d1:19:1c:07:52:d3
    Signature Algorithm: sha256WithRSAEncryption
        Issuer: C=KR, O=IDQ, OU=Quantum Tech. Lab,, CN=IDQ KMS Self Signed CA
        Validity
            Not Before: Nov 15 06:22:55 2018 GMT
            Not After : Nov 14 06:22:55 2023 GMT
        Subject: C=KR, O=IDQ, OU=Quantum Tech. Lab,, CN=IDQ KMS Client 440110001
        Subject Public Key Info:
            Public Key Algorithm: rsaEncryption
                Public-Key: (2048 bit)
                Modulus:
                    00:b9:ae:06:88:2f:8d:69:07:ad:13:9c:bf:4d:b0:
                    18:c9:a8:67:c2:76:83:99:ae:2a:8e:d4:07:6c:42:
                    c2:4b:0d:78:9d:c6:04:e0:8e:3b:d3:6b:81:49:c0:
                    a4:fe:15:e7:5d:46:4f:71:f4:5e:c6:b6:eb:c9:a9:
                    b5:4d:3c:81:29:86:4e:4d:cd:1d:5b:f8:bd:9c:90:
                    73:d7:50:d1:d8:c8:53:0b:45:3d:e3:34:5e:e2:4e:
                    fa:5b:46:12:78:b6:a8:c6:67:a1:58:7b:d9:e5:36:
                    92:33:0f:e3:d1:a0:94:8b:2c:8c:15:d9:29:70:38:
                    70:9a:20:6b:c9:ba:da:27:8c:1e:df:f8:c7:a3:2f:
                    a0:b0:ce:35:ff:52:09:09:64:7f:05:4a:a3:4d:3b:
                    25:1f:a4:2b:04:c4:4a:42:cd:81:52:4f:f8:68:6c:
                    73:ee:bc:4f:14:9c:55:33:18:bf:cd:b7:14:f4:c0:
                    fd:75:e4:41:2a:c9:22:3e:2a:46:13:84:92:f0:47:
                    aa:6f:3e:e3:cd:be:76:67:c9:b3:91:de:7e:a4:98:
                    ac:8e:31:5d:94:6f:99:c5:41:34:53:55:37:82:5f:
                    f5:21:b4:d6:43:8e:96:3b:9d:6e:32:a0:8e:9a:02:
                    4d:b4:09:f3:76:3e:41:bf:d8:0c:29:a8:4d:a1:99:
                    3c:47
                Exponent: 65537 (0x10001)
        X509v3 extensions:
            X509v3 Basic Constraints: 
                CA:FALSE
            X509v3 Authority Key Identifier: 
                keyid:54:DF:E3:33:6B:8F:40:68:89:66:D8:13:90:7C:79:B4:BF:A2:E8:71

            X509v3 Subject Key Identifier: 
                67:0B:D4:49:6D:94:8D:3C:15:0D:2A:5B:F9:CD:F7:08:8E:BC:47:94
            X509v3 Key Usage: 
                Digital Signature, Non Repudiation, Key Encipherment
            X509v3 Extended Key Usage: 
                TLS Web Client Authentication
    Signature Algorithm: sha256WithRSAEncryption
         0f:1c:ab:e2:5f:38:ba:77:68:19:1d:8e:98:30:40:55:66:85:
         15:62:bd:77:c5:03:d2:a5:98:67:b3:d7:21:0f:d8:d6:b7:fc:
         9f:18:76:93:e3:ff:7c:ee:16:67:c1:19:e6:38:ae:b5:d2:c4:
         57:b7:b9:0f:34:54:db:df:df:ab:01:5f:b7:83:5e:bd:37:c5:
         6b:c9:bc:bd:9a:cd:23:3f:45:87:79:51:f4:3d:5f:8c:03:dc:
         06:8a:a4:c2:42:88:3b:51:73:b1:69:fb:56:55:52:51:e4:07:
         28:4b:dd:80:1b:1c:a6:e5:5e:66:42:21:2c:62:30:dc:d7:af:
         ca:cd:13:3d:a0:ce:e7:0f:e4:3c:00:ca:35:e9:36:15:3d:d3:
         22:07:34:50:7f:4f:bb:0b:2c:43:00:25:21:cc:b1:19:4a:9c:
         b7:a2:20:4c:31:2c:cf:73:72:7b:9c:7f:fa:6f:d2:26:88:6a:
         a1:05:aa:5b:ad:2f:2f:49:43:06:34:60:09:71:fd:8c:76:12:
         80:ef:92:d6:06:9e:7c:73:80:9d:69:0e:fc:64:f7:18:c6:fc:
         04:97:f0:ee:33:5d:60:d8:6e:53:ae:4f:a6:a0:81:1c:fa:1a:
         28:06:41:43:c3:26:7f:18:92:c3:42:e3:88:23:54:52:e5:00:
         9e:3c:98:51
-----BEGIN CERTIFICATE-----
MIIDpjCCAo6gAwIBAgIJAPnY0RkcB1LTMA0GCSqGSIb3DQEBCwUAMFkxCzAJBgNV
BAYTAktSMQwwCgYDVQQKDANJRFExGzAZBgNVBAsMElF1YW50dW0gVGVjaC4gTGFi
LDEfMB0GA1UEAwwWSURRIEtNUyBTZWxmIFNpZ25lZCBDQTAeFw0xODExMTUwNjIy
NTVaFw0yMzExMTQwNjIyNTVaMFsxCzAJBgNVBAYTAktSMQwwCgYDVQQKDANJRFEx
GzAZBgNVBAsMElF1YW50dW0gVGVjaC4gTGFiLDEhMB8GA1UEAwwYSURRIEtNUyBD
bGllbnQgNDQwMTEwMDAxMIIBIjANBgkqhkiG9w0BAQEFAAOCAQ8AMIIBCgKCAQEA
ua4GiC+NaQetE5y/TbAYyahnwnaDma4qjtQHbELCSw14ncYE4I4702uBScCk/hXn
XUZPcfRexrbryam1TTyBKYZOTc0dW/i9nJBz11DR2MhTC0U94zRe4k76W0YSeLao
xmehWHvZ5TaSMw/j0aCUiyyMFdkpcDhwmiBrybraJ4we3/jHoy+gsM41/1IJCWR/
BUqjTTslH6QrBMRKQs2BUk/4aGxz7rxPFJxVMxi/zbcU9MD9deRBKskiPipGE4SS
8Eeqbz7jzb52Z8mzkd5+pJisjjFdlG+ZxUE0U1U3gl/1IbTWQ46WO51uMqCOmgJN
tAnzdj5Bv9gMKahNoZk8RwIDAQABo28wbTAJBgNVHRMEAjAAMB8GA1UdIwQYMBaA
FFTf4zNrj0BoiWbYE5B8ebS/ouhxMB0GA1UdDgQWBBRnC9RJbZSNPBUNKlv5zfcI
jrxHlDALBgNVHQ8EBAMCBeAwEwYDVR0lBAwwCgYIKwYBBQUHAwIwDQYJKoZIhvcN
AQELBQADggEBAA8cq+JfOLp3aBkdjpgwQFVmhRVivXfFA9KlmGez1yEP2Na3/J8Y
dpPj/3zuFmfBGeY4rrXSxFe3uQ80VNvf36sBX7eDXr03xWvJvL2azSM/RYd5UfQ9
X4wD3AaKpMJCiDtRc7Fp+1ZVUlHkByhL3YAbHKblXmZCISxiMNzXr8rNEz2gzucP
5DwAyjXpNhU90yIHNFB/T7sLLEMAJSHMsRlKnLeiIEwxLM9zcnucf/pv0iaIaqEF
qlutLy9JQwY0YAlx/Yx2EoDvktYGnnxzgJ1pDvxk9xjG/ASX8O4zXWDYblOuT6ag
gRz6GigGQUPDJn8YksNC44gjVFLlAJ48mFE=
-----END CERTIFICATE-----
-----BEGIN RSA PRIVATE KEY-----
MIIEpAIBAAKCAQEAua4GiC+NaQetE5y/TbAYyahnwnaDma4qjtQHbELCSw14ncYE
4I4702uBScCk/hXnXUZPcfRexrbryam1TTyBKYZOTc0dW/i9nJBz11DR2MhTC0U9
4zRe4k76W0YSeLaoxmehWHvZ5TaSMw/j0aCUiyyMFdkpcDhwmiBrybraJ4we3/jH
oy+gsM41/1IJCWR/BUqjTTslH6QrBMRKQs2BUk/4aGxz7rxPFJxVMxi/zbcU9MD9
deRBKskiPipGE4SS8Eeqbz7jzb52Z8mzkd5+pJisjjFdlG+ZxUE0U1U3gl/1IbTW
Q46WO51uMqCOmgJNtAnzdj5Bv9gMKahNoZk8RwIDAQABAoIBAH5gCIgWPVvX4p+v
lrDMgwJ1gTFksksdtE+D1g2EHnMwlwBjLxybEfLif5tv55wb0l20pgu8M+lxxGd7
/y6zWIGnrJHdYfcgBAWUd5N7qWevaH4KQYXrNg03jcQjnBzWzWZEUBdGLFaKXtUs
InWhopha2HliVYbQkysDl/k0GJjC59Er2EK51KLjI8y8qsoT+/YoYrz6Zu1SCKxF
oSL3v+baphgm+HMKqjyrqx9L27JcHXhfP0adGy5m36efbzGST8WazY5jmeRRwvg6
/o5u0+m7EVKPicdA0ouoik5Vqlj0JvAil+tUnW6ItVTd4lI0s2Sy/poLVDX4lcbf
vef5KbECgYEA3Ch3dRy2RSOwkHEBZDqLp5P6569jafAmhfJ1VVVCj8JsPF0u4VPF
NF8ffy+6/1KEunMquG8WlaoCiLCKUbNFmq1Hyq8Wm/pn0S5XfQ5w61Iuf5jYeN5y
/DhOmH1rRN3v8qZmo7/BenmQwLefR88yPYJ+EEC2eFOngeKbPeBAs4kCgYEA1+ib
RdmGxiGLx3+nfMLHVioxt5Rse2gY8BxVS9n2BZgplmPEscxVcd6HmSpnootBmRcR
XJk6JKxajVNjUf6uaDrEHyDUIrRUyMMRd6PgKefWMDV9dkng5VuGwDqgbfyy6D7u
WevMpRkJ7ef8l5s4/adGFzB94pZrmUEgB/UM7U8CgYA0sMauU7nX4EvQtgsUNuLX
r5X8P0C2yRAfPMESND6i83A+HjsrGIZ5G08JfJ3vn4s+qHOQAp5QIYlLt5zTIunE
tDYbbz4lBJA2QzYTKxKhb2DLjwQ4IV05uiwtWM8Eg217EJI+HJWsv02Coi/P2un2
SLXtI9/H+pV7g4WOEI7LqQKBgQCFcfUWVP4h03YLVfD1AYYm0WltJ8Vs+MgBD+IA
QbT3fDaoBv35Tmu5N2rj1fu70Qo4TrOiYeo35HcLRnDqqtis/zVcb/Pthzun4jkX
kyfnfq05mrXyuHLSD6HXieTCVh9VwB+dYEpZ+IHUkz/hjETLMen2RzhnJcVXMZNU
l7bnrQKBgQCkgbYY8sLGKtAxTB6vTPxbLJCIo7Y2tVdiVQHOHGrjnltE8iJLRc+u
ZhmViQwnM6vH1si1H/0l5V3/XE7/CY8cjcL3KwxVlSX800FOZug4r9WPTe0uxqpJ
tUVfDNj/z2Kau2Yc2bvtz5bfkG5aO+jV5T2VbtT0mYZxXyJT9vlWfg==
-----END RSA PRIVATE KEY-----
