Certificate:
    Data:
        Version: 3 (0x2)
        Serial Number:
            f9:d8:d1:19:1c:07:52:d6
    Signature Algorithm: sha256WithRSAEncryption
        Issuer: C=KR, O=IDQ, OU=Quantum Tech. Lab,, CN=IDQ KMS Self Signed CA
        Validity
            Not Before: Nov 15 06:24:23 2018 GMT
            Not After : Nov 14 06:24:23 2023 GMT
        Subject: C=KR, O=IDQ, OU=Quantum Tech. Lab,, CN=IDQ KMS Client 440110020
        Subject Public Key Info:
            Public Key Algorithm: rsaEncryption
                Public-Key: (2048 bit)
                Modulus:
                    00:bf:55:77:a6:9e:f5:55:0a:2f:b8:02:7d:78:39:
                    32:32:47:1d:fe:70:e0:df:da:72:c7:df:1a:ae:1f:
                    74:9e:3e:a5:5b:f2:fb:c2:9f:5a:92:c4:2d:f5:13:
                    89:7b:29:2a:da:d9:ba:69:70:28:8c:52:16:e8:1f:
                    a3:76:03:33:9c:d1:b9:36:74:31:73:3d:09:0c:57:
                    21:d1:4a:ab:d4:93:b0:dd:03:3c:49:84:20:ee:fa:
                    cc:38:cf:e0:1a:0a:11:41:f3:db:b7:8a:8f:c7:d1:
                    c5:09:e3:77:2f:c9:52:70:90:ef:80:f1:97:3e:a9:
                    99:f4:46:18:92:a6:56:b8:3a:a5:e9:61:9c:78:58:
                    2d:b5:f0:0a:db:97:82:48:b4:4c:ca:14:2e:88:38:
                    13:66:a4:55:44:40:56:99:19:1b:f5:33:78:49:2b:
                    2e:59:59:76:6c:0f:58:78:d2:46:12:bf:e9:a6:d1:
                    ec:0a:7f:89:9f:75:bf:99:f6:ce:5f:7b:39:b6:d3:
                    ea:e7:70:3e:27:e9:9a:33:26:f9:6f:f1:c9:19:ee:
                    5e:9e:af:1b:50:c2:09:28:05:b7:36:b9:9e:20:58:
                    1d:e6:d6:d9:41:6f:29:bf:a6:07:d7:89:ea:d6:5d:
                    bc:ef:d7:3d:02:6b:6b:4e:bd:91:55:69:c6:19:8b:
                    48:1d
                Exponent: 65537 (0x10001)
        X509v3 extensions:
            X509v3 Basic Constraints: 
                CA:FALSE
            X509v3 Authority Key Identifier: 
                keyid:54:DF:E3:33:6B:8F:40:68:89:66:D8:13:90:7C:79:B4:BF:A2:E8:71

            X509v3 Subject Key Identifier: 
                C6:CB:60:73:58:1E:32:17:0A:05:BD:68:6E:34:C0:C3:F3:B8:09:E5
            X509v3 Key Usage: 
                Digital Signature, Non Repudiation, Key Encipherment
            X509v3 Extended Key Usage: 
                TLS Web Client Authentication
    Signature Algorithm: sha256WithRSAEncryption
         3d:36:67:0c:51:9a:88:0c:9f:2c:2c:f4:95:ac:d4:9d:0f:e1:
         c6:4d:13:1e:ff:7e:28:d2:da:9e:da:33:15:fc:37:4a:79:00:
         c9:a7:79:2d:15:43:37:ea:8d:b3:48:cb:8b:3c:42:25:1f:fc:
         8d:5d:76:1b:85:10:e7:60:ae:ba:00:5f:a3:d1:7c:a6:ce:40:
         13:d1:e7:6b:47:e1:07:82:2d:9e:ee:e0:d5:a6:46:b7:f7:89:
         6a:d9:39:05:92:b7:ca:09:ed:08:6b:8b:40:fe:3f:ec:f7:ec:
         fe:89:8d:94:51:e1:fd:11:a7:32:bb:e8:ce:7f:b9:0b:95:09:
         e8:4c:5c:c9:25:2d:13:b1:88:d3:74:d2:8a:74:fd:a1:59:a8:
         5b:31:20:a5:f7:fe:4c:03:e1:20:1d:9b:18:a1:43:b9:7a:23:
         ae:89:31:60:2b:0b:d8:61:0a:76:8d:65:d1:34:35:3c:38:0d:
         4a:48:8a:f0:d1:fd:17:b7:ca:eb:05:c0:1e:2c:90:cd:a0:f5:
         e7:16:22:2c:9f:c3:42:46:c3:a8:a4:0b:cb:f0:3f:cb:38:bb:
         17:f1:01:9d:ec:05:85:6f:96:f5:f3:49:b6:55:d7:14:41:4b:
         c1:7d:49:a5:b6:0f:13:29:6a:85:f6:77:65:71:1c:cb:c5:e6:
         dc:20:d9:65
-----BEGIN CERTIFICATE-----
MIIDpjCCAo6gAwIBAgIJAPnY0RkcB1LWMA0GCSqGSIb3DQEBCwUAMFkxCzAJBgNV
BAYTAktSMQwwCgYDVQQKDANJRFExGzAZBgNVBAsMElF1YW50dW0gVGVjaC4gTGFi
LDEfMB0GA1UEAwwWSURRIEtNUyBTZWxmIFNpZ25lZCBDQTAeFw0xODExMTUwNjI0
MjNaFw0yMzExMTQwNjI0MjNaMFsxCzAJBgNVBAYTAktSMQwwCgYDVQQKDANJRFEx
GzAZBgNVBAsMElF1YW50dW0gVGVjaC4gTGFiLDEhMB8GA1UEAwwYSURRIEtNUyBD
bGllbnQgNDQwMTEwMDIwMIIBIjANBgkqhkiG9w0BAQEFAAOCAQ8AMIIBCgKCAQEA
v1V3pp71VQovuAJ9eDkyMkcd/nDg39pyx98arh90nj6lW/L7wp9aksQt9ROJeykq
2tm6aXAojFIW6B+jdgMznNG5NnQxcz0JDFch0Uqr1JOw3QM8SYQg7vrMOM/gGgoR
QfPbt4qPx9HFCeN3L8lScJDvgPGXPqmZ9EYYkqZWuDql6WGceFgttfAK25eCSLRM
yhQuiDgTZqRVREBWmRkb9TN4SSsuWVl2bA9YeNJGEr/pptHsCn+Jn3W/mfbOX3s5
ttPq53A+J+maMyb5b/HJGe5enq8bUMIJKAW3NrmeIFgd5tbZQW8pv6YH14nq1l28
79c9AmtrTr2RVWnGGYtIHQIDAQABo28wbTAJBgNVHRMEAjAAMB8GA1UdIwQYMBaA
FFTf4zNrj0BoiWbYE5B8ebS/ouhxMB0GA1UdDgQWBBTGy2BzWB4yFwoFvWhuNMDD
87gJ5TALBgNVHQ8EBAMCBeAwEwYDVR0lBAwwCgYIKwYBBQUHAwIwDQYJKoZIhvcN
AQELBQADggEBAD02ZwxRmogMnyws9JWs1J0P4cZNEx7/fijS2p7aMxX8N0p5AMmn
eS0VQzfqjbNIy4s8QiUf/I1ddhuFEOdgrroAX6PRfKbOQBPR52tH4QeCLZ7u4NWm
Rrf3iWrZOQWSt8oJ7Qhri0D+P+z37P6JjZRR4f0RpzK76M5/uQuVCehMXMklLROx
iNN00op0/aFZqFsxIKX3/kwD4SAdmxihQ7l6I66JMWArC9hhCnaNZdE0NTw4DUpI
ivDR/Re3yusFwB4skM2g9ecWIiyfw0JGw6ikC8vwP8s4uxfxAZ3sBYVvlvXzSbZV
1xRBS8F9SaW2DxMpaoX2d2VxHMvF5twg2WU=
-----END CERTIFICATE-----
-----BEGIN RSA PRIVATE KEY-----
MIIEowIBAAKCAQEAv1V3pp71VQovuAJ9eDkyMkcd/nDg39pyx98arh90nj6lW/L7
wp9aksQt9ROJeykq2tm6aXAojFIW6B+jdgMznNG5NnQxcz0JDFch0Uqr1JOw3QM8
SYQg7vrMOM/gGgoRQfPbt4qPx9HFCeN3L8lScJDvgPGXPqmZ9EYYkqZWuDql6WGc
eFgttfAK25eCSLRMyhQuiDgTZqRVREBWmRkb9TN4SSsuWVl2bA9YeNJGEr/pptHs
Cn+Jn3W/mfbOX3s5ttPq53A+J+maMyb5b/HJGe5enq8bUMIJKAW3NrmeIFgd5tbZ
QW8pv6YH14nq1l2879c9AmtrTr2RVWnGGYtIHQIDAQABAoIBAQCqLGkEECNh5HJ2
tfhEYpKrtycNM/Y+AzvNWziOn7mIOW23b1DOVA8ptESv0hWYLhBIoBg1SSU3UJfB
Esq+3rAcDUgvD38f4KxYhnK0hDZ6FnXazNLlDBiClRvod7L5VfTtdOf5wcqJzZ/z
YJWUMfoZ1j6+r6F2gUBFy8Z1QG6m4S2Z6b/c05HEcrXiIi1LuYIc4fjSEI7g3b4h
pg47wdDNGtKgUr/GpQf5ln4d+tTbdrCs6H6GsdjzzOxrjPBovxhaz6GS+Y0KQVBO
UvOgkA/C1hBF/LRTbKsLm2lvOi1g7LBiGl85zKnGNCakDupEvN6LyMTce6xvR3N3
kyB5NX79AoGBAPzZhv871AERMfkQo/DhzFwjcLQSAOmZD/4/yAZLehLt/53Fgidi
iIssaHb10X7ucSrmHIOoroXfY37HCxFUN5eg36eqONs6Qb5Yy2U4CxcDYqiIhakH
M5Lu6DAvcKPF573gjmw6RaBU2y+j1ZzTO61FnX0xIphr8NlIejSj+D+fAoGBAMG3
u6/3IYrssElGxbONzBd3BElAEgMrgak/9kLP5NH8FFoBotoL3OtXsO5OxBG6c464
YF2EA74k+viCUIdPdITgJiBvWpVITZtj3gX2UFHUvzb3iGcMQRZlE4th5pDWU118
p5w8YSdFkR4zBWif1NUmDvghJQRTbAKdwsQgk+7DAoGAHNvXBJqXf+euhHbZv0yG
Pp3s5yCG6iKGKMau1ckXjcGMQz2ftU8RtpDC+5Di8FHWqMbKylweTzlH6dhd8wRh
s/SwkjpjcuIbTtZjoJHc8it4vzOVzcz8nfCWn6lKeebEpG9U0hV0jPAidDWG0/do
AEbJytgo0qy/OI2FJSzx0JECgYBApP2fFQs+fwm9Cj8DUjhfRDpL73OTVztnrY6S
cSnc4RAxkQY1WWwZpSPIAsTvXZcec2zFCD7vfwu5TlNtNBigFuTiQgaqdnxfdI4s
0yuugx5kS2pbaP13abeB9eOpRbyAIA8W1hddsZthxojxhxTRJGguaXEe5m/O17Kd
HHoBXQKBgEHkQq5vfn0/A0/bAXj/99/X0X8S0lCrSuRRzLkELiFUEbsSVENMOPhN
g8eEK599pI7WGFnDNWKTKv8QENLY0it59uiGTI0FlJUKo353fndOpT5NYJnfS8hv
OqD5wflLQqXKVu1qnjPP5uTxLXCVBs4hg1Aw1/Twjw+Kxyphy6K8
-----END RSA PRIVATE KEY-----
