Certificate:
    Data:
        Version: 3 (0x2)
        Serial Number:
            f9:d8:d1:19:1c:07:52:d4
    Signature Algorithm: sha256WithRSAEncryption
        Issuer: C=KR, O=IDQ, OU=Quantum Tech. Lab,, CN=IDQ KMS Self Signed CA
        Validity
            Not Before: Nov 15 06:23:26 2018 GMT
            Not After : Nov 14 06:23:26 2023 GMT
        Subject: C=KR, O=IDQ, OU=Quantum Tech. Lab,, CN=IDQ KMS Client 440110002
        Subject Public Key Info:
            Public Key Algorithm: rsaEncryption
                Public-Key: (2048 bit)
                Modulus:
                    00:e0:75:e9:84:68:02:3d:18:6e:41:97:8f:85:f9:
                    59:8f:8e:3d:38:1c:a4:83:a5:4d:6a:eb:f8:0a:9d:
                    db:1d:fb:68:fa:83:84:ec:3c:8a:38:36:57:12:80:
                    1b:e1:f2:59:7b:f9:88:cd:e0:3e:f8:84:a8:b1:9c:
                    6d:04:1a:a6:58:6b:3c:54:37:2b:92:1a:6e:09:f2:
                    39:38:1a:a0:3b:42:2d:18:12:af:1e:30:dd:c2:a2:
                    de:e1:db:d2:18:13:80:a8:a8:06:0f:6b:08:ec:55:
                    ba:71:b9:67:02:2f:bd:c7:5c:95:16:01:e0:72:aa:
                    ba:56:15:d7:fa:1c:af:33:77:6c:67:36:cf:4c:79:
                    08:cb:a0:0a:e8:b2:b5:2d:fc:8d:9f:d3:cd:5b:fc:
                    c4:54:38:d9:76:da:6d:18:1b:5b:45:38:ae:1a:6f:
                    69:af:bc:ff:92:bc:9a:b4:8c:9d:55:ca:e3:6a:54:
                    b6:db:f6:e3:66:18:3b:68:07:f4:cb:58:53:17:af:
                    1e:44:bc:cb:f7:5d:e7:f0:11:34:18:d9:e4:fb:40:
                    e4:24:0c:eb:36:a6:67:9d:ff:de:08:09:ba:34:e7:
                    e4:56:86:9d:78:f7:0e:b2:22:f4:30:ee:96:09:14:
                    ae:b1:6a:c2:90:ff:6b:4a:6a:32:bf:be:b1:cb:91:
                    db:a5
                Exponent: 65537 (0x10001)
        X509v3 extensions:
            X509v3 Basic Constraints: 
                CA:FALSE
            X509v3 Authority Key Identifier: 
                keyid:54:DF:E3:33:6B:8F:40:68:89:66:D8:13:90:7C:79:B4:BF:A2:E8:71

            X509v3 Subject Key Identifier: 
                9D:DB:29:01:08:53:32:11:6E:3F:56:8E:A9:A4:0E:A3:54:50:59:48
            X509v3 Key Usage: 
                Digital Signature, Non Repudiation, Key Encipherment
            X509v3 Extended Key Usage: 
                TLS Web Client Authentication
    Signature Algorithm: sha256WithRSAEncryption
         82:a3:42:0a:2d:74:8f:31:87:31:52:48:eb:35:22:46:6d:fd:
         5d:53:60:16:a1:ed:0a:ef:51:a3:87:d8:01:9d:e2:76:43:d2:
         d4:bf:06:8e:88:c5:79:2a:0a:37:d7:8a:ea:1d:db:33:d2:84:
         35:e3:aa:35:34:2f:f2:c1:8e:b4:82:bc:5e:60:9d:ae:4e:25:
         08:71:40:90:bf:63:65:67:02:77:3b:4a:51:8e:86:d7:c2:60:
         22:b3:59:30:b8:d4:c3:f3:dc:9c:26:3c:1f:71:18:e2:a4:50:
         a2:9b:c0:35:da:93:24:5d:1a:c3:3d:88:1d:57:83:1b:b6:1e:
         53:cb:c9:b3:98:fe:57:74:db:17:41:b0:05:77:cb:c7:83:a7:
         03:50:83:88:ad:b8:61:a1:95:d2:11:87:9b:b5:8e:f0:c0:8e:
         ae:9c:0b:df:0d:59:56:7a:15:5c:1a:88:f3:80:5d:ef:9a:7c:
         2e:ce:e3:39:e5:72:93:16:c1:1d:80:e9:25:36:1d:0d:1c:2b:
         12:40:c8:3d:f9:11:62:b0:69:d8:a0:a9:92:26:7a:2d:b6:52:
         f6:5d:37:cc:e8:8e:47:7a:d5:be:1e:05:12:18:b1:97:ee:fe:
         2f:2b:57:56:21:7d:ae:c2:6e:ef:e7:19:b6:42:3d:54:61:a4:
         86:f4:e7:93
-----BEGIN CERTIFICATE-----
MIIDpjCCAo6gAwIBAgIJAPnY0RkcB1LUMA0GCSqGSIb3DQEBCwUAMFkxCzAJBgNV
BAYTAktSMQwwCgYDVQQKDANJRFExGzAZBgNVBAsMElF1YW50dW0gVGVjaC4gTGFi
LDEfMB0GA1UEAwwWSURRIEtNUyBTZWxmIFNpZ25lZCBDQTAeFw0xODExMTUwNjIz
MjZaFw0yMzExMTQwNjIzMjZaMFsxCzAJBgNVBAYTAktSMQwwCgYDVQQKDANJRFEx
GzAZBgNVBAsMElF1YW50dW0gVGVjaC4gTGFiLDEhMB8GA1UEAwwYSURRIEtNUyBD
bGllbnQgNDQwMTEwMDAyMIIBIjANBgkqhkiG9w0BAQEFAAOCAQ8AMIIBCgKCAQEA
4HXphGgCPRhuQZePhflZj449OBykg6VNauv4Cp3bHfto+oOE7DyKODZXEoAb4fJZ
e/mIzeA++ISosZxtBBqmWGs8VDcrkhpuCfI5OBqgO0ItGBKvHjDdwqLe4dvSGBOA
qKgGD2sI7FW6cblnAi+9x1yVFgHgcqq6VhXX+hyvM3dsZzbPTHkIy6AK6LK1LfyN
n9PNW/zEVDjZdtptGBtbRTiuGm9pr7z/kryatIydVcrjalS22/bjZhg7aAf0y1hT
F68eRLzL913n8BE0GNnk+0DkJAzrNqZnnf/eCAm6NOfkVoadePcOsiL0MO6WCRSu
sWrCkP9rSmoyv76xy5HbpQIDAQABo28wbTAJBgNVHRMEAjAAMB8GA1UdIwQYMBaA
FFTf4zNrj0BoiWbYE5B8ebS/ouhxMB0GA1UdDgQWBBSd2ykBCFMyEW4/Vo6ppA6j
VFBZSDALBgNVHQ8EBAMCBeAwEwYDVR0lBAwwCgYIKwYBBQUHAwIwDQYJKoZIhvcN
AQELBQADggEBAIKjQgotdI8xhzFSSOs1IkZt/V1TYBah7QrvUaOH2AGd4nZD0tS/
Bo6IxXkqCjfXiuod2zPShDXjqjU0L/LBjrSCvF5gna5OJQhxQJC/Y2VnAnc7SlGO
htfCYCKzWTC41MPz3JwmPB9xGOKkUKKbwDXakyRdGsM9iB1Xgxu2HlPLybOY/ld0
2xdBsAV3y8eDpwNQg4ituGGhldIRh5u1jvDAjq6cC98NWVZ6FVwaiPOAXe+afC7O
4znlcpMWwR2A6SU2HQ0cKxJAyD35EWKwadigqZImei22UvZdN8zojkd61b4eBRIY
sZfu/i8rV1Yhfa7Cbu/nGbZCPVRhpIb055M=
-----END CERTIFICATE-----
-----BEGIN RSA PRIVATE KEY-----
MIIEogIBAAKCAQEA4HXphGgCPRhuQZePhflZj449OBykg6VNauv4Cp3bHfto+oOE
7DyKODZXEoAb4fJZe/mIzeA++ISosZxtBBqmWGs8VDcrkhpuCfI5OBqgO0ItGBKv
HjDdwqLe4dvSGBOAqKgGD2sI7FW6cblnAi+9x1yVFgHgcqq6VhXX+hyvM3dsZzbP
THkIy6AK6LK1LfyNn9PNW/zEVDjZdtptGBtbRTiuGm9pr7z/kryatIydVcrjalS2
2/bjZhg7aAf0y1hTF68eRLzL913n8BE0GNnk+0DkJAzrNqZnnf/eCAm6NOfkVoad
ePcOsiL0MO6WCRSusWrCkP9rSmoyv76xy5HbpQIDAQABAoIBAGdpq8aW7MEdKl8J
5tQAx6R+EfJyL9F/LSXfxY2OoM81b25LfcghNEUltAQQBciZkWSu2LqRYDG7XMVH
nmpPpOgDr+3U5TwQ9TWb5YTVr5Ddskzu/sNYHDN6OlmwnyD8i0Ao+XHNDHVmIdoX
Yz/8ouDg5McY4kGyKttSgQj4gjehJs2wYrgS2Ym9m/TEZGHk0AoLBmgiDCu21Svc
1tZ8U8WHS8Cbk8bgflU55mJEFpSglFwy0MoMl/pMGVwJGsz7KZ64uyUpu4idgpDL
tc5WLrodLMVic1h55Md9cb0XtDGliG/jalFIomtowIFf1w9711tTQjkZWTtsxegO
0xACmMECgYEA98bXtdDeHcIPGIoZp0pRAM27RWFy76aZssFzYCUy37I1LU7D3BrF
wOCEGgA3v3Dp7cOPA6C/sLi3dKH2wjkomii/As5YCQvW3v6QDz/CxgWG9OA+zO+C
Z6IVRpcavWh9yxftvJNL9XyIWCjsGS0UY7YVz6+jddn0ncn5sWolw+kCgYEA5+j4
qKWg1uMuyQIYK9U/HE28wYmz3VhjIgFwDH8qqetEEIYm7dN3kLg4taSOt4f+0AAT
KxfU4YfIn8V8mJ4bhYDzpwUC9uPsAQFBVGDMIMWRuNhWlQUd0SMVzfhoZ97dsaAI
jj4kV/eIBnyAX3YvAJkyRoa17gobU0uiNpFuMF0CgYALVadMg++FQPlb0AV4Z6fo
94BXniuZ1u81BDB493qqTQatueqvyPG+7wZcAiKKuWmaHNYP/myGcwzBYx9cpyy6
UJ7cTAAu+cGslcyVRf9s+5e+3/s/eL1obDu47PSmMX9/qOqRM9PHuRirn8OdKzjB
jvTUeV5q57uO9Exd11M+8QKBgFdgG2/PF45fAh2RwHGjYqfTUi7JJw9aYd9KE2Fh
+D0U+wwOv1QTvJS2FAe7/FmBz6umm5I85GQkuJ4Z1hvaVhwyvZpL9RX4Qc8PHgIg
hkhCp+iw+c4jo1xMj8aOtSeNfJGT7iVJnH/YL1PiTKuq54KeNacE0j7hZ/I2KOPO
X2mxAoGADn8uXejypPKCMVptnlE9PMw1jMzZqmDUo4Xu9yEzoRWGnQMa26lx53bl
wf5EFAOJtneyqpFIUdeQXH9HqeEakqkoDhuMGqXLlfnIT+XCRWpk8xZ0l7U+o4z3
I2nk6DIF8a1sY6LJEuanYk5Nu6Szjso1LlQmS0xy3blLx9zjLnw=
-----END RSA PRIVATE KEY-----
