Certificate:
    Data:
        Version: 3 (0x2)
        Serial Number:
            f9:d8:d1:19:1c:07:52:d1
    Signature Algorithm: sha256WithRSAEncryption
        Issuer: C=KR, O=IDQ, OU=Quantum Tech. Lab,, CN=IDQ KMS Self Signed CA
        Validity
            Not Before: Nov 15 06:21:48 2018 GMT
            Not After : Nov 14 06:21:48 2023 GMT
        Subject: C=KR, O=IDQ, OU=Quantum Tech. Lab,, CN=IDQ KMS Client 330110002
        Subject Public Key Info:
            Public Key Algorithm: rsaEncryption
                Public-Key: (2048 bit)
                Modulus:
                    00:c1:e0:cf:c7:2f:7e:c5:1d:10:1e:47:dc:7b:2f:
                    c0:33:05:ea:84:55:bd:83:ff:dc:ff:2e:16:a6:39:
                    9a:35:44:7f:83:5d:e6:4d:dc:5c:e4:cd:1a:8a:b1:
                    ef:e9:dd:cc:85:41:19:61:53:34:78:be:0e:c9:9b:
                    d6:0e:c7:0c:05:e3:bf:d7:34:d1:fd:ba:9b:56:5a:
                    80:c1:a2:60:56:e0:1a:8a:d7:ec:87:19:5d:ec:8c:
                    85:f3:cb:ce:87:e1:80:35:87:0e:49:1f:38:8b:67:
                    a9:bb:81:d7:f4:d5:73:67:6c:b1:72:f2:6d:d7:d4:
                    68:ae:10:67:4a:0f:65:fc:41:f1:39:e3:da:8f:2c:
                    fa:cf:7d:fc:4d:16:cf:22:57:5a:51:c6:51:85:ea:
                    54:ff:7c:36:e9:a9:da:2b:ca:1b:bf:44:ca:46:67:
                    d1:ab:b6:53:2b:25:dd:a1:13:8b:48:6f:38:7b:02:
                    09:57:4c:51:db:42:b6:a9:f1:6c:dd:6b:9c:df:aa:
                    04:ee:84:d2:e4:fe:14:55:96:cd:35:1b:4a:da:f1:
                    ae:2e:5b:ba:80:c9:69:77:c6:00:22:d6:68:44:8e:
                    10:3b:a3:07:8a:6c:ce:c0:f9:ac:74:fd:25:5f:c0:
                    84:56:ce:98:e0:f0:fc:42:9f:a1:58:e5:53:a2:f0:
                    7d:55
                Exponent: 65537 (0x10001)
        X509v3 extensions:
            X509v3 Basic Constraints: 
                CA:FALSE
            X509v3 Authority Key Identifier: 
                keyid:54:DF:E3:33:6B:8F:40:68:89:66:D8:13:90:7C:79:B4:BF:A2:E8:71

            X509v3 Subject Key Identifier: 
                FA:6E:11:5E:E3:37:52:3B:A7:44:B1:C4:C2:3A:14:3A:14:89:45:50
            X509v3 Key Usage: 
                Digital Signature, Non Repudiation, Key Encipherment
            X509v3 Extended Key Usage: 
                TLS Web Client Authentication
    Signature Algorithm: sha256WithRSAEncryption
         9f:dd:54:23:aa:9c:59:ef:b3:b2:ca:39:d7:14:60:99:cf:d5:
         ea:d5:1f:5e:ac:00:84:47:66:3b:b5:f0:f6:50:39:40:f1:e6:
         cc:2e:39:d2:8f:df:b5:25:dc:26:37:e4:82:66:b0:cc:72:42:
         0f:b3:e9:01:5e:85:d2:a5:ef:d7:ae:3b:0a:6f:0b:d3:1b:14:
         74:08:47:9a:8f:f7:bc:ab:9f:22:6a:4a:cd:55:71:b8:ec:a8:
         d2:ba:b2:20:af:c1:a0:e9:c1:f5:d0:5e:35:11:c8:3d:cc:ff:
         36:86:fb:de:d8:c0:c9:2e:2e:09:2a:98:44:d0:8f:d4:25:90:
         c4:e7:77:15:49:03:c2:00:af:71:8e:49:6a:37:89:08:1b:7b:
         e2:71:19:07:17:ea:39:ba:e3:ca:b4:2e:a0:f7:94:a9:47:af:
         90:37:e7:6f:91:f2:11:bc:9c:46:20:8b:9e:e3:5b:4e:1c:e6:
         a5:5b:6d:80:cc:e2:74:38:f6:35:ec:0d:07:39:d2:46:95:22:
         1e:f7:4f:d6:c1:5f:cc:64:7a:27:e1:34:ed:81:33:d4:60:a2:
         d9:89:c4:c7:7d:d4:a0:70:ec:fc:03:e1:9b:55:e1:f9:26:b1:
         b1:52:5f:b6:5c:84:b3:f5:79:bd:e6:99:1f:9e:39:9c:30:57:
         57:75:e9:5b
-----BEGIN CERTIFICATE-----
MIIDpjCCAo6gAwIBAgIJAPnY0RkcB1LRMA0GCSqGSIb3DQEBCwUAMFkxCzAJBgNV
BAYTAktSMQwwCgYDVQQKDANJRFExGzAZBgNVBAsMElF1YW50dW0gVGVjaC4gTGFi
LDEfMB0GA1UEAwwWSURRIEtNUyBTZWxmIFNpZ25lZCBDQTAeFw0xODExMTUwNjIx
NDhaFw0yMzExMTQwNjIxNDhaMFsxCzAJBgNVBAYTAktSMQwwCgYDVQQKDANJRFEx
GzAZBgNVBAsMElF1YW50dW0gVGVjaC4gTGFiLDEhMB8GA1UEAwwYSURRIEtNUyBD
bGllbnQgMzMwMTEwMDAyMIIBIjANBgkqhkiG9w0BAQEFAAOCAQ8AMIIBCgKCAQEA
weDPxy9+xR0QHkfcey/AMwXqhFW9g//c/y4WpjmaNUR/g13mTdxc5M0airHv6d3M
hUEZYVM0eL4OyZvWDscMBeO/1zTR/bqbVlqAwaJgVuAaitfshxld7IyF88vOh+GA
NYcOSR84i2epu4HX9NVzZ2yxcvJt19RorhBnSg9l/EHxOePajyz6z338TRbPIlda
UcZRhepU/3w26anaK8obv0TKRmfRq7ZTKyXdoROLSG84ewIJV0xR20K2qfFs3Wuc
36oE7oTS5P4UVZbNNRtK2vGuLlu6gMlpd8YAItZoRI4QO6MHimzOwPmsdP0lX8CE
Vs6Y4PD8Qp+hWOVTovB9VQIDAQABo28wbTAJBgNVHRMEAjAAMB8GA1UdIwQYMBaA
FFTf4zNrj0BoiWbYE5B8ebS/ouhxMB0GA1UdDgQWBBT6bhFe4zdSO6dEscTCOhQ6
FIlFUDALBgNVHQ8EBAMCBeAwEwYDVR0lBAwwCgYIKwYBBQUHAwIwDQYJKoZIhvcN
AQELBQADggEBAJ/dVCOqnFnvs7LKOdcUYJnP1erVH16sAIRHZju18PZQOUDx5swu
OdKP37Ul3CY35IJmsMxyQg+z6QFehdKl79euOwpvC9MbFHQIR5qP97yrnyJqSs1V
cbjsqNK6siCvwaDpwfXQXjURyD3M/zaG+97YwMkuLgkqmETQj9QlkMTndxVJA8IA
r3GOSWo3iQgbe+JxGQcX6jm648q0LqD3lKlHr5A352+R8hG8nEYgi57jW04c5qVb
bYDM4nQ49jXsDQc50kaVIh73T9bBX8xkeifhNO2BM9RgotmJxMd91KBw7PwD4ZtV
4fkmsbFSX7ZchLP1eb3mmR+eOZwwV1d16Vs=
-----END CERTIFICATE-----
-----BEGIN RSA PRIVATE KEY-----
MIIEpAIBAAKCAQEAweDPxy9+xR0QHkfcey/AMwXqhFW9g//c/y4WpjmaNUR/g13m
Tdxc5M0airHv6d3MhUEZYVM0eL4OyZvWDscMBeO/1zTR/bqbVlqAwaJgVuAaitfs
hxld7IyF88vOh+GANYcOSR84i2epu4HX9NVzZ2yxcvJt19RorhBnSg9l/EHxOePa
jyz6z338TRbPIldaUcZRhepU/3w26anaK8obv0TKRmfRq7ZTKyXdoROLSG84ewIJ
V0xR20K2qfFs3Wuc36oE7oTS5P4UVZbNNRtK2vGuLlu6gMlpd8YAItZoRI4QO6MH
imzOwPmsdP0lX8CEVs6Y4PD8Qp+hWOVTovB9VQIDAQABAoIBAQCkK8Dl0wMO2LBY
Y9OAgIvI6N6QFqZ3CwdREe7d7PL23jz3uWCWV95VZJRwE4KrT0SrJdffAPzyrUWK
VKprMwOsTRGao0CaERUOh252CRB5ICV5oqPINqPA9bFMIy2NBFdzfByNsKFJ8orY
m3eJ++FQF8sfIcf/tf66PmuoW+epNZZxsuwa/BWWnZEvAPyZZJQHZ3CaU7D06Ohj
bIgBNdHwwhwhdgZqN01CjHhDNPc682LT8xvz8+bBvgzs55JmV8u3wBJBAEmUazLy
QbDSQDLuo3Wo0VxY3v3qoQ8CLGQ2BoFZ4KB9aYMq+YZStmm/cY7YfNvtTRN5RhxB
CzjW1MxhAoGBAPXljwfa9TwzZoYJjFWJOCnsHQuIAL6D9KtfecZ7jS1A+f1sIkc3
sJc8+jNFtjfQduDQ7vUiwTr0VWKtG4WDQ4aVnzpyl/c9YitQavuPyHV8PhJGPpao
BpVSduwpCX2zlm3uXsPK5eoS1bg9wi/MyeQTt5Ia6MXDCEnenz5ydswdAoGBAMnY
Gc4Mw5Jw/cz1XPb1xOHpQBPv3Byixxoc9fzYjVTV1oeC9cvFx8iW1VaO4I9g39pX
NgOK7qKlaxg3gs/80f5sa16J9J+p5LwDbdqkN2KW3QhaZGyk03WrBbIWFMH/VKnH
HFUjm0e6mzQ4bSIQEmixfYRNc75dQ1Aef/7JyoCZAoGAU6Tby4tCwlClvlB/KRV9
Ql1r3+FKh4PxdV4L2WVrt4oTv43J9znNWxTF8yzyd/f0iDLqJf7Fhh1Y8jD6XKcz
EBPTTxlt8g8yVpOLYLkfMj+qCaNVZQARBThA9cJb1SOCtzBPkgBxxvbTNlHjvUjH
IEtItW1r4uGd7yrINoDPQk0CgYEAwTCUalJvMg/x7CWAiGNtwSimiy6OB96JIOZN
T2fZxjQx9FwVdKdl9AjiQsnYB4OaXnoQmc11YLlhSrl+/CGowJL3JXJ3cAaFhqrl
j1qUJEnvXxpdels8hihd+DkIPzJqz2FjLd45tqrV+GJ1mh+17vzK/UHAoZjUX7AB
pFVx/CkCgYBNSR1/uMxA6kKIC3OEp5A542BZ4hFaOAP//efUCCf0GgC5DpfdLJIP
0vsVOqHgekSqd4Al/oC7jfL/NoWvpqfli2wy7xt9ZeYJtP+nLE13B4EkhFTB1khS
0EFG124Am16Fseqatf4ib5iBLr1TKiH1N2pHdH/2vO28jwV32rcbcA==
-----END RSA PRIVATE KEY-----
