Certificate:
    Data:
        Version: 3 (0x2)
        Serial Number:
            f9:d8:d1:19:1c:07:52:d2
    Signature Algorithm: sha256WithRSAEncryption
        Issuer: C=KR, O=IDQ, OU=Quantum Tech. Lab,, CN=IDQ KMS Self Signed CA
        Validity
            Not Before: Nov 15 06:22:21 2018 GMT
            Not After : Nov 14 06:22:21 2023 GMT
        Subject: C=KR, O=IDQ, OU=Quantum Tech. Lab,, CN=IDQ KMS Client 330110003
        Subject Public Key Info:
            Public Key Algorithm: rsaEncryption
                Public-Key: (2048 bit)
                Modulus:
                    00:d0:1c:50:de:9f:2f:fd:7c:3e:5e:49:81:74:8f:
                    cf:55:06:ed:9e:c9:e7:38:76:96:fe:69:03:15:d2:
                    ac:fb:b5:e6:fb:c2:44:89:c6:3a:3e:16:d4:ae:7f:
                    66:45:2c:0a:ea:ef:f9:20:5f:95:47:a3:65:4b:38:
                    d0:4f:59:1a:6b:12:75:32:36:98:86:91:29:b8:60:
                    6e:aa:80:ef:37:96:6e:c2:c3:c8:f6:13:eb:77:95:
                    35:69:7f:87:3c:e8:3c:8f:d1:b2:36:65:40:b4:f2:
                    ee:1e:f3:b3:df:a1:54:f8:c6:77:73:89:fb:c1:00:
                    26:98:c1:58:58:7d:b3:20:9f:8a:ff:5e:c9:8e:fb:
                    1d:b9:5a:1e:a8:16:ca:57:5d:c2:a1:9b:17:53:83:
                    b1:58:98:35:24:cd:86:9a:89:6f:44:4f:d7:71:fd:
                    37:09:3c:f2:cb:55:79:22:b5:18:8c:69:fc:1a:d5:
                    c8:bb:9a:9b:52:a7:26:f1:73:46:56:fb:17:c0:46:
                    4a:55:62:39:32:ab:e1:d3:d3:ed:9f:9a:48:dd:44:
                    04:26:a7:a4:83:35:9f:ac:33:87:66:b0:bd:73:dd:
                    c6:12:c0:4a:8a:41:85:10:02:5f:12:64:54:02:2f:
                    c0:65:65:14:6e:6f:ff:64:e5:e6:54:83:23:dc:ea:
                    d5:75
                Exponent: 65537 (0x10001)
        X509v3 extensions:
            X509v3 Basic Constraints: 
                CA:FALSE
            X509v3 Authority Key Identifier: 
                keyid:54:DF:E3:33:6B:8F:40:68:89:66:D8:13:90:7C:79:B4:BF:A2:E8:71

            X509v3 Subject Key Identifier: 
                EC:EC:D9:64:95:A0:61:50:2F:C9:08:A0:83:4B:38:E8:46:D5:73:C6
            X509v3 Key Usage: 
                Digital Signature, Non Repudiation, Key Encipherment
            X509v3 Extended Key Usage: 
                TLS Web Client Authentication
    Signature Algorithm: sha256WithRSAEncryption
         98:9a:92:64:fb:2a:3b:86:07:9b:c4:3b:cf:12:b5:d3:2e:f1:
         a5:7e:2c:e4:70:33:15:f8:15:1b:8a:5f:61:5c:e7:18:f2:d7:
         1e:f3:90:91:03:d0:a3:2b:7e:bf:d8:2b:7d:58:a6:f7:b5:48:
         7a:15:3b:6f:ec:0a:4b:34:fa:f7:39:b9:47:52:4a:6c:5e:64:
         06:ee:c1:eb:92:9b:cc:25:1b:c5:52:f1:c9:b9:04:05:c8:6b:
         b2:6e:e7:8c:f4:80:1c:92:dc:23:c6:6e:3d:f0:9e:dc:0f:4e:
         3d:4a:1b:3e:7a:cd:85:46:b8:e9:eb:eb:2b:e6:c8:15:f0:df:
         dc:e2:70:30:be:c1:9a:c6:49:ed:19:71:c1:47:1f:c5:75:27:
         bd:1a:05:d6:2f:62:ff:20:8a:89:18:52:0a:88:d7:eb:82:02:
         59:c4:14:ae:eb:a4:e4:cc:32:82:42:ee:f0:63:52:45:77:ee:
         eb:01:ad:52:73:41:6b:e5:66:70:57:8c:b4:b5:28:7d:41:24:
         b4:04:eb:6e:8b:3e:db:f2:7b:db:aa:52:35:ee:a4:f2:54:12:
         a3:1e:fa:b5:e3:ef:90:0d:a1:db:26:7e:b7:5a:67:73:0b:e0:
         88:60:98:88:e7:7a:d6:37:fc:99:d4:c8:18:69:27:39:9e:c0:
         9d:44:0c:fa
-----BEGIN CERTIFICATE-----
MIIDpjCCAo6gAwIBAgIJAPnY0RkcB1LSMA0GCSqGSIb3DQEBCwUAMFkxCzAJBgNV
BAYTAktSMQwwCgYDVQQKDANJRFExGzAZBgNVBAsMElF1YW50dW0gVGVjaC4gTGFi
LDEfMB0GA1UEAwwWSURRIEtNUyBTZWxmIFNpZ25lZCBDQTAeFw0xODExMTUwNjIy
MjFaFw0yMzExMTQwNjIyMjFaMFsxCzAJBgNVBAYTAktSMQwwCgYDVQQKDANJRFEx
GzAZBgNVBAsMElF1YW50dW0gVGVjaC4gTGFiLDEhMB8GA1UEAwwYSURRIEtNUyBD
bGllbnQgMzMwMTEwMDAzMIIBIjANBgkqhkiG9w0BAQEFAAOCAQ8AMIIBCgKCAQEA
0BxQ3p8v/Xw+XkmBdI/PVQbtnsnnOHaW/mkDFdKs+7Xm+8JEicY6PhbUrn9mRSwK
6u/5IF+VR6NlSzjQT1kaaxJ1MjaYhpEpuGBuqoDvN5ZuwsPI9hPrd5U1aX+HPOg8
j9GyNmVAtPLuHvOz36FU+MZ3c4n7wQAmmMFYWH2zIJ+K/17JjvsduVoeqBbKV13C
oZsXU4OxWJg1JM2GmolvRE/Xcf03CTzyy1V5IrUYjGn8GtXIu5qbUqcm8XNGVvsX
wEZKVWI5Mqvh09Ptn5pI3UQEJqekgzWfrDOHZrC9c93GEsBKikGFEAJfEmRUAi/A
ZWUUbm//ZOXmVIMj3OrVdQIDAQABo28wbTAJBgNVHRMEAjAAMB8GA1UdIwQYMBaA
FFTf4zNrj0BoiWbYE5B8ebS/ouhxMB0GA1UdDgQWBBTs7NlklaBhUC/JCKCDSzjo
RtVzxjALBgNVHQ8EBAMCBeAwEwYDVR0lBAwwCgYIKwYBBQUHAwIwDQYJKoZIhvcN
AQELBQADggEBAJiakmT7KjuGB5vEO88StdMu8aV+LORwMxX4FRuKX2Fc5xjy1x7z
kJED0KMrfr/YK31Ypve1SHoVO2/sCks0+vc5uUdSSmxeZAbuweuSm8wlG8VS8cm5
BAXIa7Ju54z0gByS3CPGbj3wntwPTj1KGz56zYVGuOnr6yvmyBXw39zicDC+wZrG
Se0ZccFHH8V1J70aBdYvYv8giokYUgqI1+uCAlnEFK7rpOTMMoJC7vBjUkV37usB
rVJzQWvlZnBXjLS1KH1BJLQE626LPtvye9uqUjXupPJUEqMe+rXj75ANodsmfrda
Z3ML4IhgmIjnetY3/JnUyBhpJzmewJ1EDPo=
-----END CERTIFICATE-----
-----BEGIN RSA PRIVATE KEY-----
MIIEpAIBAAKCAQEA0BxQ3p8v/Xw+XkmBdI/PVQbtnsnnOHaW/mkDFdKs+7Xm+8JE
icY6PhbUrn9mRSwK6u/5IF+VR6NlSzjQT1kaaxJ1MjaYhpEpuGBuqoDvN5ZuwsPI
9hPrd5U1aX+HPOg8j9GyNmVAtPLuHvOz36FU+MZ3c4n7wQAmmMFYWH2zIJ+K/17J
jvsduVoeqBbKV13CoZsXU4OxWJg1JM2GmolvRE/Xcf03CTzyy1V5IrUYjGn8GtXI
u5qbUqcm8XNGVvsXwEZKVWI5Mqvh09Ptn5pI3UQEJqekgzWfrDOHZrC9c93GEsBK
ikGFEAJfEmRUAi/AZWUUbm//ZOXmVIMj3OrVdQIDAQABAoIBACYVWHM03Fpd1yf3
+Zm0C3P63ZcWSZrakM0juG3Q7NjvM8LUjShNPzFHikoYhEWaRrExkvxqoW3Hp+y5
C93JZ306lnnG5eiSPflApF/NUnlwrPo1S9xETu3GP0z8CmqJ8TM8Y4lyxAGZBxxg
6oS9CEiyQP/Cu3BZL7b6gslGz3Xjh7tliNuuG3skHfzHZEB/7iJwc7M28M/408Hd
J5BniV9GeoLuSo1cfQTCNo+R4eXISjm0fnS48neQj6AhSNLHzxhd/KDwDZDkExcP
WdJtaNVuqQpc09bFdMU7GUbsXcyVYgrhn/SqjWOiJOEhsOJLHT4+fWeDmRYVuX8S
mXbdqkECgYEA8yiI775Sy1gNR69aUT8qSbAnuHS887+cDTyeH5Eoj919P1g1TPlx
oa+4Jtzf7LG2HPUUZpabMU0pY19XT9vLg7UVvPbLiwshXN0fJ/O96x2LMLQFlAo9
ZsR3NV5Mj51Jl6zWKHNyoGwRhxxqTVSZHAiOQXo4yHLp1ohBMpFsFpECgYEA2xnw
2QrC78HbEF9mv2jtS5jKApl5Z32VrjijqfGY2JirEPkgRon/elJBOpVme8I8gYDt
4sp7pH97WQpfkN+2BEatuVfqBls/jat+2u+8RyWora/FLIIT9dJ06G9JHlecNxn+
pmJRl5l4UHkn2utn55gfQf6h41cwY6CKFHEEqqUCgYEA4CxKstyAcD/pXmFnnufh
ELZ6qC/X09CfCgUMsoWdI6VLRw8HdMOz4yChYhLXztu3zdKU0E+hHD7LHXZUhKda
ZT6Zn/DXjoTgaUDi7G5mdVBzdp9BVU5rdUdDr8wUQYL8yfzqI7jrwMJhFnM3/bs0
vQeWPv9zQjnPI53SndA8GkECgYANqriTUVCHlBgOFWVbWzgyFv3C27/u7K6Bh5bt
6twV5rAFBwU0YTdGcgsPlHIoFh2gFmLAWtELmcgf7b24U7wO2DnN7eXzL43vUFtB
XOLprTewXd52wEZudwpD1W1CL0TXSw/PYSKlyjTvEB+kUDrS/3Izs6Z1f+LM1B7I
16Pq4QKBgQDIyR9M2dvNe0bdWBwKSMRwWcTDP0RPewdpBddZyANNY8eqZia4gW+P
1QUklzOuEUDJ6MGbbVHbCKwLG7e7jniVczgPGTL+AkBwX+Sy2Wl4hVJzc99yBe8u
/Raja2oOzVlNR6jdRxMrIcVSJej8Ap/AnHpFgOXjw3Cq3t+Iv6h//A==
-----END RSA PRIVATE KEY-----
