Certificate:
    Data:
        Version: 1 (0x0)
        Serial Number: 1 (0x1)
    Signature Algorithm: sha256WithRSAEncryption
        Issuer: C=KR, ST=Seongnam,Gyeonggi, L=Bundang-gu, O=SK telecom, OU=Quantum Tech. Lab, CN=Quantum RootCA
        Validity
            Not Before: Jun 22 08:04:23 2016 GMT
            Not After : Jun 22 08:04:23 2019 GMT
        Subject: C=KR, ST=Seongnam,Gyeonggi, O=SK telecom, OU=Quantum Tech. Lab, CN=Quantum/emailAddress=quantum@sk.com
        Subject Public Key Info:
            Public Key Algorithm: rsaEncryption
                Public-Key: (2048 bit)
                Modulus:
                    00:e1:2d:13:e8:86:93:84:31:27:79:e3:b4:5b:16:
                    99:ef:c6:08:f8:3c:3a:93:c9:74:06:f3:c9:98:8c:
                    55:ea:07:8d:94:06:a1:bc:b5:27:f2:1d:c3:99:b8:
                    19:3d:c1:9b:c6:82:4f:43:5d:b2:0c:a0:b4:92:74:
                    71:0d:f3:2e:cb:82:a3:7d:09:e3:d6:39:f7:93:60:
                    fb:54:16:51:bf:cc:90:db:94:5d:53:f5:ac:02:d7:
                    9b:55:98:00:c8:5f:7e:8c:a0:30:19:30:b0:66:6a:
                    fe:40:a7:35:fb:24:ca:bc:04:0f:26:23:c8:50:5a:
                    6d:48:ed:02:33:94:58:1e:c9:3d:f9:0e:4e:f8:49:
                    8a:45:af:e6:13:9b:7c:85:3f:d5:d5:89:7c:8b:01:
                    0c:f1:bf:b9:7d:13:33:9b:de:b4:fa:b0:11:c2:90:
                    e6:b2:30:02:70:70:75:3b:ff:84:fa:fe:e7:03:c2:
                    6c:99:a3:de:dc:19:5e:6c:30:68:4a:e7:85:c9:86:
                    b8:31:ee:4c:0e:ad:90:f9:62:07:8f:83:f5:b2:ea:
                    17:ba:8a:f7:7c:d5:f9:2f:d4:9b:af:53:f3:37:3e:
                    6b:e1:bf:5c:16:6c:f6:35:5f:6a:1f:7d:87:35:33:
                    ee:de:8f:f6:15:e7:e7:f0:61:3e:da:61:e9:07:c0:
                    e8:f1
                Exponent: 65537 (0x10001)
    Signature Algorithm: sha256WithRSAEncryption
         0a:38:0b:02:e6:82:12:25:75:df:e0:52:62:6b:35:e6:30:f1:
         87:1b:fc:a9:fe:77:47:b6:3b:db:33:0c:82:f1:94:0f:86:b4:
         52:dc:4d:e4:6c:cc:08:10:83:11:28:a4:d2:16:36:79:97:9d:
         69:ca:a1:d9:14:9a:60:12:c7:bc:c0:87:35:d9:e6:42:b1:a7:
         e0:6d:6e:7c:c2:de:de:67:4d:ef:08:28:71:21:bc:2c:83:5d:
         e7:86:3e:ce:78:58:0b:ff:d6:03:b9:45:9c:59:61:a1:2b:8e:
         9c:48:3c:c3:e4:2a:28:30:05:6a:b8:31:5e:12:40:07:bb:82:
         cc:b4:32:ff:cb:bd:1e:16:e1:94:05:1d:af:5f:e9:e7:3d:04:
         9e:3e:99:db:fe:f0:14:97:df:ea:40:46:0b:d7:ed:4f:da:58:
         84:d6:a9:71:59:2a:5b:60:5a:f2:87:9f:fc:0d:d3:65:7d:71:
         c0:3e:8b:1d:88:a7:04:33:2e:8a:66:fd:5c:7e:56:3e:bd:ca:
         5d:7c:5b:b4:bd:c9:6c:92:f4:52:b6:aa:68:a0:b1:a3:1c:a2:
         5d:f1:6d:12:40:eb:d9:b5:8d:e5:b1:3b:f1:b3:42:56:87:42:
         33:08:7c:21:8f:f9:04:a6:70:b5:0e:dc:b1:f3:e5:17:89:51:
         64:cd:e9:ff
-----BEGIN CERTIFICATE-----
MIIDiTCCAnECAQEwDQYJKoZIhvcNAQELBQAwgYgxCzAJBgNVBAYTAktSMRowGAYD
VQQIExFTZW9uZ25hbSxHeWVvbmdnaTETMBEGA1UEBxMKQnVuZGFuZy1ndTETMBEG
A1UEChMKU0sgdGVsZWNvbTEaMBgGA1UECxMRUXVhbnR1bSBUZWNoLiBMYWIxFzAV
BgNVBAMTDlF1YW50dW0gUm9vdENBMB4XDTE2MDYyMjA4MDQyM1oXDTE5MDYyMjA4
MDQyM1owgYsxCzAJBgNVBAYTAktSMRowGAYDVQQIExFTZW9uZ25hbSxHeWVvbmdn
aTETMBEGA1UEChMKU0sgdGVsZWNvbTEaMBgGA1UECxMRUXVhbnR1bSBUZWNoLiBM
YWIxEDAOBgNVBAMTB1F1YW50dW0xHTAbBgkqhkiG9w0BCQEWDnF1YW50dW1Ac2su
Y29tMIIBIjANBgkqhkiG9w0BAQEFAAOCAQ8AMIIBCgKCAQEA4S0T6IaThDEneeO0
WxaZ78YI+Dw6k8l0BvPJmIxV6geNlAahvLUn8h3DmbgZPcGbxoJPQ12yDKC0knRx
DfMuy4KjfQnj1jn3k2D7VBZRv8yQ25RdU/WsAtebVZgAyF9+jKAwGTCwZmr+QKc1
+yTKvAQPJiPIUFptSO0CM5RYHsk9+Q5O+EmKRa/mE5t8hT/V1Yl8iwEM8b+5fRMz
m960+rARwpDmsjACcHB1O/+E+v7nA8JsmaPe3BlebDBoSueFyYa4Me5MDq2Q+WIH
j4P1suoXuor3fNX5L9Sbr1PzNz5r4b9cFmz2NV9qH32HNTPu3o/2Fefn8GE+2mHp
B8Do8QIDAQABMA0GCSqGSIb3DQEBCwUAA4IBAQAKOAsC5oISJXXf4FJiazXmMPGH
G/yp/ndHtjvbMwyC8ZQPhrRS3E3kbMwIEIMRKKTSFjZ5l51pyqHZFJpgEse8wIc1
2eZCsafgbW58wt7eZ03vCChxIbwsg13nhj7OeFgL/9YDuUWcWWGhK46cSDzD5Coo
MAVquDFeEkAHu4LMtDL/y70eFuGUBR2vX+nnPQSePpnb/vAUl9/qQEYL1+1P2liE
1qlxWSpbYFryh5/8DdNlfXHAPosdiKcEMy6KZv1cflY+vcpdfFu0vclskvRStqpo
oLGjHKJd8W0SQOvZtY3lsTvxs0JWh0IzCHwhj/kEpnC1Dtyx8+UXiVFkzen/
-----END CERTIFICATE-----
-----BEGIN PRIVATE KEY-----
MIIEwAIBADANBgkqhkiG9w0BAQEFAASCBKowggSmAgEAAoIBAQDhLRPohpOEMSd5
47RbFpnvxgj4PDqTyXQG88mYjFXqB42UBqG8tSfyHcOZuBk9wZvGgk9DXbIMoLSS
dHEN8y7LgqN9CePWOfeTYPtUFlG/zJDblF1T9awC15tVmADIX36MoDAZMLBmav5A
pzX7JMq8BA8mI8hQWm1I7QIzlFgeyT35Dk74SYpFr+YTm3yFP9XViXyLAQzxv7l9
EzOb3rT6sBHCkOayMAJwcHU7/4T6/ucDwmyZo97cGV5sMGhK54XJhrgx7kwOrZD5
YgePg/Wy6he6ivd81fkv1JuvU/M3Pmvhv1wWbPY1X2offYc1M+7ej/YV5+fwYT7a
YekHwOjxAgMBAAECggEBAIKB/efnF9imJJsgvoeMseume8xkHA9L01O0OEOSErlx
Zz1EGrmkxWIung+aBAcnD4IeRJJm26s1+XJoyp2rNJP/Q4JVGRgwwK1KqGA0D216
wvqBIxZmbSu4iu8xCkMYFeCrdzUiYxr5KCOQxlipGleegqk4VAE+Z9i8hWofsHMm
WagdW1AYaDtgzRG+G7O00sV71wwp4rxhtG41BlktyAO9fqPEnae+2cV0kYjJJfo/
2/SOIiopg6bH++qtWp+6x9um/lSP/yn/uCOAYkX39k8tAYWUQv8lbeeOxL7kgjks
IjXRi/50aQMdCEUiNfkCHf8fmQ08TAP0Gf1x6nYVwAECgYEA+MUkuurBgcek5WS/
9CUSH2o2JIlq18S8ctP7IHwvNjg9NwWfwQ3c7dYgfRXCl8JfTEbgY7ShoWveyGgA
MEbHuVdEQmLLvDI1eH32heg1j9BEpfL4E+9svg9aGy58IFxOgV3NnbkaTdhC8bNL
0aEp0W+E0+TRKHmLQ1Az33no2qECgYEA57hk6xfAKLWf+TmsbRTMZuAevmU4Snwi
OBp4/NBmKM4OxIP7tIwxbP+UnPBbPJCTzwILgYGBm5OFMIabJ8Cw5KpzBsTm53au
Nt6trZt7tragllF0oybpQDclcfYa47Fui5uI6ngQLloNFMTDiPeEPqN3qw443oTa
hodLvxgWPFECgYEA0A1ArLqM35cyh079YphmUbOoWGI84vt8h6RV0FNLwNLED3I6
q2CGtrpwLWy3c+hxfv9/xqNY0gG/LmgcUEPB4XXkdojdzyVGpuDh/he4Q/BwmUFc
zH9euI1qVHVKBl5sobDrt88I+rW1NyM2c7mPmcLkmboyWuFb4Q4AdBQm9EECgYEA
wvH+9UomABnNXH+I8Lxuup4TP1so4IFOyKR85TTuvaWeBvaC7IKFko3zGZWdLHb1
41J1G584ywpxI0IbhnY2XCqKW0eMe279Ymw08bm9expqQAyHdDtoQP4kIpxKQwUj
W5Cev6QC+PwJxU9EshaKy6f7JY3xikN7FXL95ub8zgECgYEAl4mGbV9RSWs9hrHv
TMh71jxaX+0XnHy4EXtpPPk6OrsBf3q5ZfE5ATp0rfIbuglxohbNZzV4OSrcBr7e
XtsWBS7KKAVaXxUORDrMBcrIbE0sHiHbfslJzVbRpr49aQk4g/+ju8ZleP7wa5Bf
v/4eZs+gWc6JoTUCn2cvnHUBlbg=
-----END PRIVATE KEY-----
-----BEGIN DH PARAMETERS-----
MIGHAoGBAJjhUuvz2SLyXeaXD05xUCprRvwLTUzPZodUbyt4glSU0WCpy9k9wn1Q
U/tDZ3eAAa+LHPuqCQ3o0uauThRSJn4xnuUOw9kqpQQCXlMQB2P9bYE3wHrDwzas
cZmXyoQ/UuxrREBpVsVy3/uBzl008/MJowcB7RnZqTVAbWvsWCfTAgEF
-----END DH PARAMETERS-----
