Certificate:
    Data:
        Version: 3 (0x2)
        Serial Number:
            f9:d8:d1:19:1c:07:52:d5
    Signature Algorithm: sha256WithRSAEncryption
        Issuer: C=KR, O=IDQ, OU=Quantum Tech. Lab,, CN=IDQ KMS Self Signed CA
        Validity
            Not Before: Nov 15 06:23:55 2018 GMT
            Not After : Nov 14 06:23:55 2023 GMT
        Subject: C=KR, O=IDQ, OU=Quantum Tech. Lab,, CN=IDQ KMS Client 440110003
        Subject Public Key Info:
            Public Key Algorithm: rsaEncryption
                Public-Key: (2048 bit)
                Modulus:
                    00:c0:5f:8e:89:48:64:21:c4:ba:74:da:1d:32:71:
                    9e:1f:58:33:7a:ed:14:e9:fd:73:c8:34:0c:96:9f:
                    7f:bb:f6:e4:22:1c:cc:a7:d3:85:0f:4d:b0:e9:8a:
                    93:15:fb:d9:b5:d1:5f:88:08:04:0a:de:81:a4:3e:
                    7c:55:bf:b0:72:d4:1f:25:d5:20:ec:0d:a8:3f:ad:
                    da:af:f1:71:72:4e:0c:76:bc:1c:e1:e6:18:7a:e6:
                    57:7f:a0:03:d3:e2:71:2a:3f:4f:61:b1:90:37:1f:
                    9a:a6:aa:5b:38:45:1b:a2:8b:4b:ad:70:21:9a:f9:
                    e0:c8:b5:b0:f7:a2:4d:ca:98:2f:3a:2f:71:30:62:
                    f2:5a:29:0e:fe:f1:92:64:a7:a2:5f:40:1a:3a:37:
                    d7:88:05:c7:e5:c6:80:1e:08:35:73:cd:60:fe:12:
                    97:26:d5:48:03:ce:bc:b3:25:79:af:3d:8e:84:b9:
                    c1:1f:30:a1:16:2d:d0:1d:1c:dc:71:5a:48:f7:cb:
                    fa:9c:fd:39:ea:ee:70:52:45:4b:a8:b7:e8:cb:36:
                    b1:8e:99:7a:d9:1f:87:07:49:73:12:a4:e7:a3:cb:
                    6c:c8:ea:66:23:f1:9f:3e:88:9f:10:9a:c1:4b:0a:
                    6a:05:3d:a4:a2:c2:b4:cb:7d:33:fb:f6:c3:07:3a:
                    80:89
                Exponent: 65537 (0x10001)
        X509v3 extensions:
            X509v3 Basic Constraints: 
                CA:FALSE
            X509v3 Authority Key Identifier: 
                keyid:54:DF:E3:33:6B:8F:40:68:89:66:D8:13:90:7C:79:B4:BF:A2:E8:71

            X509v3 Subject Key Identifier: 
                5D:8C:C4:87:C6:41:17:85:16:73:69:C8:57:73:E5:2D:C0:D5:D9:62
            X509v3 Key Usage: 
                Digital Signature, Non Repudiation, Key Encipherment
            X509v3 Extended Key Usage: 
                TLS Web Client Authentication
    Signature Algorithm: sha256WithRSAEncryption
         3f:18:42:06:b9:85:1a:d0:f2:62:fa:01:d4:ac:7b:2a:86:79:
         49:83:ad:68:8b:f3:63:41:92:aa:d9:20:c9:e8:3d:ce:30:69:
         60:c0:8c:7c:59:e7:ca:09:ae:4d:e7:3e:b0:49:c3:13:e1:96:
         a9:e7:7c:32:90:b1:60:41:76:4d:bc:f0:f5:f0:6b:9f:07:8d:
         6b:36:68:f4:23:7e:1f:59:ea:03:dd:e9:d0:77:71:13:64:92:
         63:7e:76:1a:80:59:74:26:71:bd:ed:85:e6:08:75:76:db:84:
         e5:6f:de:a9:9d:b5:c8:3c:ef:41:be:66:a1:68:e9:3a:ff:0d:
         c9:64:31:c0:c1:6e:4a:c3:83:2a:f3:1f:f4:79:75:12:39:c5:
         2f:e0:1d:e2:b1:f8:44:a5:64:c9:61:17:56:22:ac:23:a9:a0:
         d1:24:c2:2d:be:fa:7a:7d:30:84:fb:6b:55:b8:ba:2f:86:67:
         8e:79:2a:35:97:95:40:9f:2f:4b:ca:7e:1e:be:8c:98:4b:8a:
         54:54:9d:45:b3:41:8b:97:18:90:12:4f:f9:11:87:d7:91:af:
         e7:2a:eb:e7:98:e0:21:d8:2f:1b:cd:71:18:fa:2e:0c:75:07:
         e1:bd:3a:de:ae:ff:ae:4c:57:17:25:a4:34:20:c4:c4:1f:f6:
         c0:0a:b7:0b
-----BEGIN CERTIFICATE-----
MIIDpjCCAo6gAwIBAgIJAPnY0RkcB1LVMA0GCSqGSIb3DQEBCwUAMFkxCzAJBgNV
BAYTAktSMQwwCgYDVQQKDANJRFExGzAZBgNVBAsMElF1YW50dW0gVGVjaC4gTGFi
LDEfMB0GA1UEAwwWSURRIEtNUyBTZWxmIFNpZ25lZCBDQTAeFw0xODExMTUwNjIz
NTVaFw0yMzExMTQwNjIzNTVaMFsxCzAJBgNVBAYTAktSMQwwCgYDVQQKDANJRFEx
GzAZBgNVBAsMElF1YW50dW0gVGVjaC4gTGFiLDEhMB8GA1UEAwwYSURRIEtNUyBD
bGllbnQgNDQwMTEwMDAzMIIBIjANBgkqhkiG9w0BAQEFAAOCAQ8AMIIBCgKCAQEA
wF+OiUhkIcS6dNodMnGeH1gzeu0U6f1zyDQMlp9/u/bkIhzMp9OFD02w6YqTFfvZ
tdFfiAgECt6BpD58Vb+wctQfJdUg7A2oP63ar/Fxck4Mdrwc4eYYeuZXf6AD0+Jx
Kj9PYbGQNx+apqpbOEUbootLrXAhmvngyLWw96JNypgvOi9xMGLyWikO/vGSZKei
X0AaOjfXiAXH5caAHgg1c81g/hKXJtVIA868syV5rz2OhLnBHzChFi3QHRzccVpI
98v6nP056u5wUkVLqLfoyzaxjpl62R+HB0lzEqTno8tsyOpmI/GfPoifEJrBSwpq
BT2kosK0y30z+/bDBzqAiQIDAQABo28wbTAJBgNVHRMEAjAAMB8GA1UdIwQYMBaA
FFTf4zNrj0BoiWbYE5B8ebS/ouhxMB0GA1UdDgQWBBRdjMSHxkEXhRZzachXc+Ut
wNXZYjALBgNVHQ8EBAMCBeAwEwYDVR0lBAwwCgYIKwYBBQUHAwIwDQYJKoZIhvcN
AQELBQADggEBAD8YQga5hRrQ8mL6AdSseyqGeUmDrWiL82NBkqrZIMnoPc4waWDA
jHxZ58oJrk3nPrBJwxPhlqnnfDKQsWBBdk288PXwa58HjWs2aPQjfh9Z6gPd6dB3
cRNkkmN+dhqAWXQmcb3theYIdXbbhOVv3qmdtcg870G+ZqFo6Tr/DclkMcDBbkrD
gyrzH/R5dRI5xS/gHeKx+ESlZMlhF1YirCOpoNEkwi2++np9MIT7a1W4ui+GZ455
KjWXlUCfL0vKfh6+jJhLilRUnUWzQYuXGJAST/kRh9eRr+cq6+eY4CHYLxvNcRj6
Lgx1B+G9Ot6u/65MVxclpDQgxMQf9sAKtws=
-----END CERTIFICATE-----
-----BEGIN RSA PRIVATE KEY-----
MIIEpAIBAAKCAQEAwF+OiUhkIcS6dNodMnGeH1gzeu0U6f1zyDQMlp9/u/bkIhzM
p9OFD02w6YqTFfvZtdFfiAgECt6BpD58Vb+wctQfJdUg7A2oP63ar/Fxck4Mdrwc
4eYYeuZXf6AD0+JxKj9PYbGQNx+apqpbOEUbootLrXAhmvngyLWw96JNypgvOi9x
MGLyWikO/vGSZKeiX0AaOjfXiAXH5caAHgg1c81g/hKXJtVIA868syV5rz2OhLnB
HzChFi3QHRzccVpI98v6nP056u5wUkVLqLfoyzaxjpl62R+HB0lzEqTno8tsyOpm
I/GfPoifEJrBSwpqBT2kosK0y30z+/bDBzqAiQIDAQABAoIBAA/6H7lxJLfVQfMg
hlpBK3PI/IWSGTGR1kLjZ8Q+vPoceDgJEkpB/AQYXMAYvTyPLTa3i+qdV9CbSEMe
2W65u+rdiTS4LcLNI5MeWlJQiC6JIundl7x/Qrs6VDwKSycW4HU0yt//Qk4BtvNu
pKLYwoHOdduSu4fGhw/EX01B0ponwq9QGcSeoepkzNZQriV4yaTVkGt97VEYEtus
GLnKI5RCt/EH7e+6uBy4wwolYTqZLbYSpPfxOLwtF+fgkSYQkRTySoKhudl/ugiL
+3jNSNQ0rVWS7Mqc1Da9ItHqs+VWc7pRkw9nqpBxcC5zbIIcEzQr5zUEtgu9thDo
khKJnj0CgYEA39THAZO8hH5NSafP7AgWr2LQCRk4cHgpWIv/crmuS25kjqGUxObL
NGoExai+6jfDl9HL36JMj/qm/F5hAhUtW+u6pGVQpHHiHNIHmvdbp9X/W6OvpCC/
tAszXuIfayw7GTWXw7HCVBTlVEftXWjnW4hPj27yav8pLKA9LYcIOrcCgYEA3AVg
e858c1xFiXZKN6+hH38595ZgHHeA0TDoeVZ7no/EJmu8eHr83iaQdHtOjlbE93CM
kVz+X5YyTiBB/VKkJb6iUVRmb2mkK5qsN3PCPQf1Xr99aSfEGz9ftMHgIJwjlVaW
0H4Au4ThrOZTmzdJO4iu5lyAPDs+QveD04g03r8CgYAK57n+aK1Bo0musf9eV5KL
XvwVxWXLjP8usjty4nsMb8d0b4jpAvmZhyTOYIdUr/zWk8EkFys1xJeIKiz9xfxc
wyJnygvgxy+mCdGXCkAr8DAtzc7L51CPvA/3qnqvZQtIEiVfwnReVlpJ/eshpu/G
tOBzc4taDS57Xx877Z1IBwKBgQCcWE3JbF9O8mCPX7k5fNn3scaVQwwk7l5hSGnJ
30SU1gBCdQhGbM7HZYv82apmxw3L7vRUT0qKzgYNMiryQglWsPJS7LCltuHsAksi
VGXQTJl1rIkHcjSOUChIIASN56X5dsBQg1kt5y0eWcVLZKvrXCM8mrqdElQZ7hyE
8iLvrQKBgQC0tIM0rMzx2Ule7a6q40iIf4qufRFrdj++xOA9W7dsvYZez35X6uu4
X3fkMfTjLMdy1rFRgZUZFgWZ4AmO2jYDDS1fivuNSMb0j+T6pXa6gdH/C+T5ydyS
rmNBezQbPaV+MoD4kyeCV7Q8d76pumxkcJZOPx/vfFM94FwUguHmTw==
-----END RSA PRIVATE KEY-----
