Certificate:
    Data:
        Version: 3 (0x2)
        Serial Number:
            f9:d8:d1:19:1c:07:52:d0
    Signature Algorithm: sha256WithRSAEncryption
        Issuer: C=KR, O=IDQ, OU=Quantum Tech. Lab,, CN=IDQ KMS Self Signed CA
        Validity
            Not Before: Nov 15 05:10:50 2018 GMT
            Not After : Nov 14 05:10:50 2023 GMT
        Subject: C=KR, O=IDQ, OU=Quantum Tech. Lab,, CN=IDQ KMS Client2
        Subject Public Key Info:
            Public Key Algorithm: rsaEncryption
                Public-Key: (2048 bit)
                Modulus:
                    00:f0:ca:24:86:45:ec:7a:84:47:e9:d8:b1:92:bc:
                    a9:85:9c:53:32:60:76:43:a1:83:c5:47:eb:6f:67:
                    79:9d:f6:91:a0:96:02:a7:55:23:c9:0b:7b:20:cd:
                    d0:18:d4:3c:75:95:c0:2a:02:d3:4a:f5:79:9e:90:
                    0e:d5:ef:cc:26:2e:d8:67:a1:d1:dd:a2:64:3b:73:
                    a4:a6:f7:72:94:df:a2:36:6b:90:b0:11:00:bb:a4:
                    7f:37:96:f4:cf:8c:6b:3d:47:9f:6e:15:75:cb:4f:
                    fb:0f:e3:9b:90:b9:f9:b0:1b:2b:f4:e6:9b:0a:e9:
                    6d:50:fa:44:18:f9:18:41:c1:b3:0e:8b:16:0f:8a:
                    a3:bf:79:44:66:c8:9b:57:16:a5:47:e0:5d:b3:36:
                    54:0c:d2:aa:cc:7d:31:5e:38:2d:dd:de:73:46:76:
                    c6:3f:88:42:10:d2:8f:73:c3:e9:2c:26:71:17:33:
                    28:c0:e8:0e:23:6e:30:56:46:f6:99:38:18:a3:d3:
                    5f:73:cb:44:ae:3c:99:ee:64:8d:13:2d:36:0f:48:
                    a5:67:e9:bd:20:51:7d:39:ab:12:16:31:87:57:15:
                    de:00:04:50:32:a5:28:fc:02:6d:49:23:98:34:67:
                    de:be:1f:49:92:64:a8:78:68:7e:27:f4:fb:da:0c:
                    be:bb
                Exponent: 65537 (0x10001)
        X509v3 extensions:
            X509v3 Basic Constraints: 
                CA:FALSE
            X509v3 Authority Key Identifier: 
                keyid:54:DF:E3:33:6B:8F:40:68:89:66:D8:13:90:7C:79:B4:BF:A2:E8:71

            X509v3 Subject Key Identifier: 
                61:D1:A0:20:A0:2D:93:73:85:38:27:86:E5:40:C9:DF:5B:5F:76:F8
            X509v3 Key Usage: 
                Digital Signature, Non Repudiation, Key Encipherment
            X509v3 Extended Key Usage: 
                TLS Web Client Authentication
            X509v3 Subject Alternative Name: 
                DirName:/CN=330110002
    Signature Algorithm: sha256WithRSAEncryption
         09:c9:83:1f:93:17:4b:82:dc:86:d8:7e:7d:3b:77:14:71:af:
         22:38:32:ba:c6:3d:c4:13:09:6e:f2:dc:c9:cd:93:a9:86:15:
         c2:55:b1:4e:6f:ba:ce:06:6c:5c:53:37:04:c5:ce:3b:ef:af:
         47:77:13:15:f6:5b:cc:ad:71:de:4c:73:04:12:a5:52:aa:31:
         63:3b:92:02:a7:1c:92:29:ef:59:4c:a7:93:4b:0a:66:ce:0a:
         f0:ac:73:41:cb:e2:99:92:1c:3b:da:aa:cf:ca:61:c0:e5:25:
         a8:6f:d2:e2:31:42:e8:91:52:b7:1e:5c:12:18:c4:d8:f7:da:
         ca:17:3a:c9:3d:79:de:6e:06:35:31:41:57:c2:a2:13:8d:19:
         8a:50:87:5d:11:50:1c:8a:35:a6:8c:41:74:f6:e1:e5:4f:62:
         1c:0f:a7:65:71:a4:a5:5d:14:b8:e4:c0:cd:da:17:e1:ce:6a:
         33:76:66:71:fd:35:28:6a:2c:49:d5:ff:78:c1:1f:5e:88:32:
         13:6e:fc:7c:bb:26:2e:7d:a5:81:56:15:38:91:8c:7d:82:c7:
         40:7f:61:d3:99:8e:ff:b3:62:71:e5:bb:18:f3:09:ad:91:88:
         ba:b9:b5:3a:13:f5:3e:03:de:0a:26:d6:ee:0b:f4:2c:77:2d:
         1f:2d:a5:ee
-----BEGIN CERTIFICATE-----
MIIDwjCCAqqgAwIBAgIJAPnY0RkcB1LQMA0GCSqGSIb3DQEBCwUAMFkxCzAJBgNV
BAYTAktSMQwwCgYDVQQKDANJRFExGzAZBgNVBAsMElF1YW50dW0gVGVjaC4gTGFi
LDEfMB0GA1UEAwwWSURRIEtNUyBTZWxmIFNpZ25lZCBDQTAeFw0xODExMTUwNTEw
NTBaFw0yMzExMTQwNTEwNTBaMFIxCzAJBgNVBAYTAktSMQwwCgYDVQQKDANJRFEx
GzAZBgNVBAsMElF1YW50dW0gVGVjaC4gTGFiLDEYMBYGA1UEAwwPSURRIEtNUyBD
bGllbnQyMIIBIjANBgkqhkiG9w0BAQEFAAOCAQ8AMIIBCgKCAQEA8MokhkXseoRH
6dixkryphZxTMmB2Q6GDxUfrb2d5nfaRoJYCp1UjyQt7IM3QGNQ8dZXAKgLTSvV5
npAO1e/MJi7YZ6HR3aJkO3OkpvdylN+iNmuQsBEAu6R/N5b0z4xrPUefbhV1y0/7
D+ObkLn5sBsr9OabCultUPpEGPkYQcGzDosWD4qjv3lEZsibVxalR+BdszZUDNKq
zH0xXjgt3d5zRnbGP4hCENKPc8PpLCZxFzMowOgOI24wVkb2mTgYo9Nfc8tErjyZ
7mSNEy02D0ilZ+m9IFF9OasSFjGHVxXeAARQMqUo/AJtSSOYNGfevh9JkmSoeGh+
J/T72gy+uwIDAQABo4GTMIGQMAkGA1UdEwQCMAAwHwYDVR0jBBgwFoAUVN/jM2uP
QGiJZtgTkHx5tL+i6HEwHQYDVR0OBBYEFGHRoCCgLZNzhTgnhuVAyd9bX3b4MAsG
A1UdDwQEAwIF4DATBgNVHSUEDDAKBggrBgEFBQcDAjAhBgNVHREEGjAYpBYwFDES
MBAGA1UEAwwJMzMwMTEwMDAyMA0GCSqGSIb3DQEBCwUAA4IBAQAJyYMfkxdLgtyG
2H59O3cUca8iODK6xj3EEwlu8tzJzZOphhXCVbFOb7rOBmxcUzcExc47769HdxMV
9lvMrXHeTHMEEqVSqjFjO5ICpxySKe9ZTKeTSwpmzgrwrHNBy+KZkhw72qrPymHA
5SWob9LiMULokVK3HlwSGMTY99rKFzrJPXnebgY1MUFXwqITjRmKUIddEVAcijWm
jEF09uHlT2IcD6dlcaSlXRS45MDN2hfhzmozdmZx/TUoaixJ1f94wR9eiDITbvx8
uyYufaWBVhU4kYx9gsdAf2HTmY7/s2Jx5bsY8wmtkYi6ubU6E/U+A94KJtbuC/Qs
dy0fLaXu
-----END CERTIFICATE-----
-----BEGIN RSA PRIVATE KEY-----
MIIEowIBAAKCAQEA8MokhkXseoRH6dixkryphZxTMmB2Q6GDxUfrb2d5nfaRoJYC
p1UjyQt7IM3QGNQ8dZXAKgLTSvV5npAO1e/MJi7YZ6HR3aJkO3OkpvdylN+iNmuQ
sBEAu6R/N5b0z4xrPUefbhV1y0/7D+ObkLn5sBsr9OabCultUPpEGPkYQcGzDosW
D4qjv3lEZsibVxalR+BdszZUDNKqzH0xXjgt3d5zRnbGP4hCENKPc8PpLCZxFzMo
wOgOI24wVkb2mTgYo9Nfc8tErjyZ7mSNEy02D0ilZ+m9IFF9OasSFjGHVxXeAARQ
MqUo/AJtSSOYNGfevh9JkmSoeGh+J/T72gy+uwIDAQABAoIBACXvYuO4nnIK5x2D
Yy6ABKElKMJWCivLhWwOUZxCjBmD4BuRpqdgNXwWD/byFefjgAbyacz0lv9HPzro
7T1tQxd85+Ej0GF/lRT8uiMH9whXV0IFnkzu0NO/Lb+/S6BrOfX0k7yPKvi2CBLP
xBGAC0NgdINn1WNZtTw9wX7Bt72cDXOEQSIfq6TXgVgNt1QwzysRTyi+Tbd/fFHF
5amwghQwBhDawvr37bTqHBXlL6TAECIWnUlAFrUH8Fn9VX7cTDGnGWV+M/SfzYXO
O3GHlvp1LgfHe4GvTk2WPep781h/L5qKCIyTlH4lFA2vJb6iT1OsV6AoHVoU4zNh
yfPz7dECgYEA+JR4fynaZbR5f+NTDjKFEDyIRnsPCYdxGST3MZDsKaaNNokhZhfU
4N2lhjSYGw++foEdYBHRpqFGqeJvTmLeBTxLucldT3solHJ/HHv5Vli2+sal9kb0
8fBK+4DDkWU7GTAVJtJkF72uHx3pcDNrs02SaOgxGE1l1omHHBzOcmMCgYEA9/ok
U3KZQ48ysLbBwlp+HCBIigPgODP6DsjEXt+ENLI+j5rTAwjomJgRalc2+VQs6mAp
+13aOtnikCYYe1rUSPYKI0IntGql4cpAgLAetjs2yKHF0LAu2URaeOZDC9OxD/66
1/yBAoXFonmYvEdMzSXULaNwZT6RKi2qXQ4zBckCgYBEPUXi6tNojiW4hOg9AoNi
1Ks4ZfnXzNWwaGRvt/AM8wrbCMQhabNn05DoCbIj46uQwNMWl22tR6LFakLSCvQW
Ddpf8zZpZk7aiZ/5atMk8A+zQis3M310mVmMN2n4lQinPnrgAGu31LtjEWwPAB61
xzrFD9DCciTdwz1S61mFLwKBgQCWkVLXPGElLWC4/e7+RJYIG+4PpzTQy3aM3Yim
lo8etA/agEaZtCIO7V69tAEUOPEgyo0TLLRiQYQYxJje5ZK6TnJvYC7dlFfuljC+
MrIjMiccgWWsRh3cHG3WtPGGz93V+XSXyqDG2FTdR3ne8GgItGx13aRURT49Xwbv
g7ylSQKBgFp5TuAVTBb+1Af3J6Bqgb25RGgxKkIUSzUcQaIg6OhuxhGizwTPFvqr
5pG/lLiC8xpr1fRtJdZlXlTUERZGvWif07cy4s/oEFGowX1UgQQROPtbJCyzeyOK
uvjGNFxf7I5MfAxQSmza7nVH0yuhEi61IMA3xirMrQtbflTGQjlp
-----END RSA PRIVATE KEY-----
