Certificate:
    Data:
        Version: 3 (0x2)
        Serial Number:
            74:f0:1d:ab:7a:83:fd:60:67:3e:c8:e0:6c:e9:6d:b3:0e:f8:49:f1
        Signature Algorithm: ecdsa-with-SHA256
        Issuer: C = KR, O = IDQ, OU = "Quantum Tech. Lab,", CN = IDQ KMS Self Signed CA
        Validity
            Not Before: Mar 15 04:56:45 2019 GMT
            Not After : Mar 13 04:56:45 2024 GMT
        Subject: C = KR, O = IDQ., OU = "Quantum Tech. Lab,", CN = KMS IDQ Server
        Subject Public Key Info:
            Public Key Algorithm: id-ecPublicKey
                Public-Key: (384 bit)
                pub:
                    04:18:35:09:6c:fd:36:6e:7a:9a:a5:e7:f6:29:f2:
                    c4:a7:fa:c6:b3:53:6a:e6:d6:06:11:26:f9:7a:b7:
                    ac:e7:c0:eb:eb:87:14:23:9b:75:f0:db:e5:e9:2d:
                    b0:c9:77:58:d3:0d:e2:94:9e:d3:32:d7:a5:7e:1d:
                    52:53:48:2e:f9:2f:f6:74:20:50:11:28:aa:cd:3b:
                    a5:97:dc:7e:1e:66:13:8b:62:a1:18:f9:64:27:fb:
                    b2:ce:e7:54:46:2d:c2
                ASN1 OID: secp384r1
                NIST CURVE: P-384
        X509v3 extensions:
            X509v3 Basic Constraints: 
                CA:FALSE
            X509v3 Authority Key Identifier: 
                keyid:78:7E:80:F0:E6:76:C4:FA:0B:D0:76:48:B8:AA:76:0D:7C:A7:FD:05

            X509v3 Subject Key Identifier: 
                86:32:5A:9F:0C:6F:11:E9:78:6F:76:B7:EF:43:09:14:2A:CB:CA:50
            X509v3 Key Usage: 
                Digital Signature, Non Repudiation, Key Encipherment
            X509v3 Extended Key Usage: 
                TLS Web Client Authentication
    Signature Algorithm: ecdsa-with-SHA256
         30:66:02:31:00:a5:23:f6:08:07:f6:9b:95:aa:8a:aa:8e:2c:
         d4:82:0b:b3:48:7e:14:78:59:ca:d4:ad:4e:86:b7:7b:57:52:
         f0:01:ef:08:45:ce:fd:2c:07:7c:9e:4f:47:cd:3c:f7:39:02:
         31:00:a1:c5:e7:ef:89:57:22:5a:f5:9f:03:6d:c1:e2:05:0f:
         cd:84:0a:82:c6:61:a8:ff:9c:34:cd:bd:16:03:bb:3a:8f:b8:
         72:20:fc:72:ca:51:75:80:c0:80:86:2f:c3:ff
-----BEGIN CERTIFICATE-----
MIICWjCCAd+gAwIBAgIUdPAdq3qD/WBnPsjgbOltsw74SfEwCgYIKoZIzj0EAwIw
WTELMAkGA1UEBhMCS1IxDDAKBgNVBAoMA0lEUTEbMBkGA1UECwwSUXVhbnR1bSBU
ZWNoLiBMYWIsMR8wHQYDVQQDDBZJRFEgS01TIFNlbGYgU2lnbmVkIENBMB4XDTE5
MDMxNTA0NTY0NVoXDTI0MDMxMzA0NTY0NVowUjELMAkGA1UEBhMCS1IxDTALBgNV
BAoMBElEUS4xGzAZBgNVBAsMElF1YW50dW0gVGVjaC4gTGFiLDEXMBUGA1UEAwwO
S01TIElEUSBTZXJ2ZXIwdjAQBgcqhkjOPQIBBgUrgQQAIgNiAAQYNQls/TZuepql
5/Yp8sSn+sazU2rm1gYRJvl6t6znwOvrhxQjm3Xw2+XpLbDJd1jTDeKUntMy16V+
HVJTSC75L/Z0IFARKKrNO6WX3H4eZhOLYqEY+WQn+7LO51RGLcKjbzBtMAkGA1Ud
EwQCMAAwHwYDVR0jBBgwFoAUeH6A8OZ2xPoL0HZIuKp2DXyn/QUwHQYDVR0OBBYE
FIYyWp8MbxHpeG92t+9DCRQqy8pQMAsGA1UdDwQEAwIF4DATBgNVHSUEDDAKBggr
BgEFBQcDAjAKBggqhkjOPQQDAgNpADBmAjEApSP2CAf2m5WqiqqOLNSCC7NIfhR4
WcrUrU6Gt3tXUvAB7whFzv0sB3yeT0fNPPc5AjEAocXn74lXIlr1nwNtweIFD82E
CoLGYaj/nDTNvRYDuzqPuHIg/HLKUXWAwICGL8P/
-----END CERTIFICATE-----
-----BEGIN EC PRIVATE KEY-----
MIGkAgEBBDAhDzJ+0rZGK7EgqYS0eydUotPTrwwVELvAmebS4am7jEsOmU8d4PwV
Dd8T/l+g1iigBwYFK4EEACKhZANiAAQYNQls/TZuepql5/Yp8sSn+sazU2rm1gYR
Jvl6t6znwOvrhxQjm3Xw2+XpLbDJd1jTDeKUntMy16V+HVJTSC75L/Z0IFARKKrN
O6WX3H4eZhOLYqEY+WQn+7LO51RGLcI=
-----END EC PRIVATE KEY-----
-----BEGIN DH PARAMETERS-----
MIIBCAKCAQEAvr5XXgwCwwMXNYKeD+jlnuCljKJUrek+VwmZc3lUEPsXiyQdngbq
VXgM+Gz0KgHfGS3ZebfxbPqVpVxxEnnv3n5f8OlFhPKooez5LRaQVpTLki02EuPK
iXzEtHssm/Qba1bptFYBiZfLrVRaVlnSy8Es1uSNkQW68WmTYO7v/lO7wwwHXMh9
x+QzLv851ee5flstoguZsOQ6oJJtNFEjs8p1GiCGAe0BBR4g9qZDnudrur2G9dVJ
i9e05KhEwZAEcvdCrz5EgWgpCBgEH53YtFDTnZLCU5fQpS3pr/bNannyy8wySMtO
TyGapgrb8hh/qSW6YiyYK6/ESNybINTDgwIBAg==
-----END DH PARAMETERS-----
